
Transmitter.elf:     file format elf32-avr

Sections:
Idx Name          Size      VMA       LMA       File off  Algn
  0 .data         00000084  00800100  0000105a  000010ee  2**0
                  CONTENTS, ALLOC, LOAD, DATA
  1 .text         0000105a  00000000  00000000  00000094  2**1
                  CONTENTS, ALLOC, LOAD, READONLY, CODE
  2 .bss          00000004  00800184  00800184  00001172  2**0
                  ALLOC
  3 .comment      0000005c  00000000  00000000  00001172  2**0
                  CONTENTS, READONLY
  4 .note.gnu.avr.deviceinfo 00000040  00000000  00000000  000011d0  2**2
                  CONTENTS, READONLY
  5 .debug_aranges 000001c8  00000000  00000000  00001210  2**0
                  CONTENTS, READONLY, DEBUGGING
  6 .debug_info   00002003  00000000  00000000  000013d8  2**0
                  CONTENTS, READONLY, DEBUGGING
  7 .debug_abbrev 00000ddf  00000000  00000000  000033db  2**0
                  CONTENTS, READONLY, DEBUGGING
  8 .debug_line   00001070  00000000  00000000  000041ba  2**0
                  CONTENTS, READONLY, DEBUGGING
  9 .debug_frame  0000049c  00000000  00000000  0000522c  2**2
                  CONTENTS, READONLY, DEBUGGING
 10 .debug_str    00000a12  00000000  00000000  000056c8  2**0
                  CONTENTS, READONLY, DEBUGGING
 11 .debug_loc    000014b0  00000000  00000000  000060da  2**0
                  CONTENTS, READONLY, DEBUGGING
 12 .debug_ranges 000001a8  00000000  00000000  0000758a  2**0
                  CONTENTS, READONLY, DEBUGGING

Disassembly of section .text:

00000000 <__vectors>:
       0:	0c 94 34 00 	jmp	0x68	; 0x68 <__ctors_end>
       4:	0c 94 51 00 	jmp	0xa2	; 0xa2 <__bad_interrupt>
       8:	0c 94 51 00 	jmp	0xa2	; 0xa2 <__bad_interrupt>
       c:	0c 94 51 00 	jmp	0xa2	; 0xa2 <__bad_interrupt>
      10:	0c 94 51 00 	jmp	0xa2	; 0xa2 <__bad_interrupt>
      14:	0c 94 51 00 	jmp	0xa2	; 0xa2 <__bad_interrupt>
      18:	0c 94 51 00 	jmp	0xa2	; 0xa2 <__bad_interrupt>
      1c:	0c 94 51 00 	jmp	0xa2	; 0xa2 <__bad_interrupt>
      20:	0c 94 51 00 	jmp	0xa2	; 0xa2 <__bad_interrupt>
      24:	0c 94 51 00 	jmp	0xa2	; 0xa2 <__bad_interrupt>
      28:	0c 94 51 00 	jmp	0xa2	; 0xa2 <__bad_interrupt>
      2c:	0c 94 51 00 	jmp	0xa2	; 0xa2 <__bad_interrupt>
      30:	0c 94 51 00 	jmp	0xa2	; 0xa2 <__bad_interrupt>
      34:	0c 94 51 00 	jmp	0xa2	; 0xa2 <__bad_interrupt>
      38:	0c 94 51 00 	jmp	0xa2	; 0xa2 <__bad_interrupt>
      3c:	0c 94 51 00 	jmp	0xa2	; 0xa2 <__bad_interrupt>
      40:	0c 94 51 00 	jmp	0xa2	; 0xa2 <__bad_interrupt>
      44:	0c 94 51 00 	jmp	0xa2	; 0xa2 <__bad_interrupt>
      48:	0c 94 51 00 	jmp	0xa2	; 0xa2 <__bad_interrupt>
      4c:	0c 94 51 00 	jmp	0xa2	; 0xa2 <__bad_interrupt>
      50:	0c 94 51 00 	jmp	0xa2	; 0xa2 <__bad_interrupt>
      54:	0c 94 51 00 	jmp	0xa2	; 0xa2 <__bad_interrupt>
      58:	0c 94 51 00 	jmp	0xa2	; 0xa2 <__bad_interrupt>
      5c:	0c 94 51 00 	jmp	0xa2	; 0xa2 <__bad_interrupt>
      60:	0c 94 51 00 	jmp	0xa2	; 0xa2 <__bad_interrupt>
      64:	0c 94 51 00 	jmp	0xa2	; 0xa2 <__bad_interrupt>

00000068 <__ctors_end>:
      68:	11 24       	eor	r1, r1
      6a:	1f be       	out	0x3f, r1	; 63
      6c:	cf ef       	ldi	r28, 0xFF	; 255
      6e:	d8 e0       	ldi	r29, 0x08	; 8
      70:	de bf       	out	0x3e, r29	; 62
      72:	cd bf       	out	0x3d, r28	; 61

00000074 <__do_copy_data>:
      74:	11 e0       	ldi	r17, 0x01	; 1
      76:	a0 e0       	ldi	r26, 0x00	; 0
      78:	b1 e0       	ldi	r27, 0x01	; 1
      7a:	ea e5       	ldi	r30, 0x5A	; 90
      7c:	f0 e1       	ldi	r31, 0x10	; 16
      7e:	02 c0       	rjmp	.+4      	; 0x84 <__do_copy_data+0x10>
      80:	05 90       	lpm	r0, Z+
      82:	0d 92       	st	X+, r0
      84:	a4 38       	cpi	r26, 0x84	; 132
      86:	b1 07       	cpc	r27, r17
      88:	d9 f7       	brne	.-10     	; 0x80 <__do_copy_data+0xc>

0000008a <__do_clear_bss>:
      8a:	21 e0       	ldi	r18, 0x01	; 1
      8c:	a4 e8       	ldi	r26, 0x84	; 132
      8e:	b1 e0       	ldi	r27, 0x01	; 1
      90:	01 c0       	rjmp	.+2      	; 0x94 <.do_clear_bss_start>

00000092 <.do_clear_bss_loop>:
      92:	1d 92       	st	X+, r1

00000094 <.do_clear_bss_start>:
      94:	a8 38       	cpi	r26, 0x88	; 136
      96:	b2 07       	cpc	r27, r18
      98:	e1 f7       	brne	.-8      	; 0x92 <.do_clear_bss_loop>
      9a:	0e 94 9c 03 	call	0x738	; 0x738 <main>
      9e:	0c 94 2b 08 	jmp	0x1056	; 0x1056 <_exit>

000000a2 <__bad_interrupt>:
      a2:	0c 94 00 00 	jmp	0	; 0x0 <__vectors>

000000a6 <init_button_inputs>:

	LCD_PrintTwoLines("Waiting for Cmd", "", 0);
}

void init_button_inputs(void) {
	DDRC &= ~((1 << BUTTON_FORWARD_PIN) | (1 << BUTTON_STOP_PIN) | (1 << BUTTON_BACKWARD_PIN));
      a6:	87 b1       	in	r24, 0x07	; 7
      a8:	81 7f       	andi	r24, 0xF1	; 241
      aa:	87 b9       	out	0x07, r24	; 7
      ac:	08 95       	ret

000000ae <init_indication_pins>:
}

void init_indication_pins(void) {
	DDRB |= (1 << INDICATOR_FORWARD_PIN);    // D10 ęŕę âűőîä (PB2)
      ae:	84 b1       	in	r24, 0x04	; 4
      b0:	84 60       	ori	r24, 0x04	; 4
      b2:	84 b9       	out	0x04, r24	; 4
	DDRB |= (1 << INDICATOR_BACKWARD_PIN);   // D11 ęŕę âűőîä (PB3)
      b4:	84 b1       	in	r24, 0x04	; 4
      b6:	88 60       	ori	r24, 0x08	; 8
      b8:	84 b9       	out	0x04, r24	; 4
	DDRB |= (1 << POWER_INDICATION_ENABLE);  // D8 ęŕę âűőîä (PB0)
      ba:	84 b1       	in	r24, 0x04	; 4
      bc:	81 60       	ori	r24, 0x01	; 1
      be:	84 b9       	out	0x04, r24	; 4
      c0:	08 95       	ret

000000c2 <system_init>:

#include <avr/interrupt.h>

uint8_t routeSetupInProgress = 0;

void system_init(void) {
      c2:	cf 93       	push	r28
      c4:	df 93       	push	r29
      c6:	1f 92       	push	r1
      c8:	cd b7       	in	r28, 0x3d	; 61
      ca:	de b7       	in	r29, 0x3e	; 62
	I2C_Init();
      cc:	0e 94 88 00 	call	0x110	; 0x110 <I2C_Init>
	LCD_Init();
      d0:	0e 94 f0 00 	call	0x1e0	; 0x1e0 <LCD_Init>
	LCD_Clear();
      d4:	0e 94 27 01 	call	0x24e	; 0x24e <LCD_Clear>

	UART_init();
      d8:	0e 94 3a 04 	call	0x874	; 0x874 <UART_init>
	
	init_button_inputs();
      dc:	0e 94 53 00 	call	0xa6	; 0xa6 <init_button_inputs>
	init_indication_pins();
      e0:	0e 94 57 00 	call	0xae	; 0xae <init_indication_pins>
	
	init_74HC165_ports();
      e4:	0e 94 22 04 	call	0x844	; 0x844 <init_74HC165_ports>
	init_74HC595_ports();
      e8:	0e 94 d7 03 	call	0x7ae	; 0x7ae <init_74HC595_ports>
	
	// Î÷čńňęŕ đĺăčńňđîâ ďđč ńňŕđňĺ
	uint8_t initData[NUM_OF_74HC595] = {0};
      ec:	19 82       	std	Y+1, r1	; 0x01
	shiftOutMultiple(initData, NUM_OF_74HC595);
      ee:	61 e0       	ldi	r22, 0x01	; 1
      f0:	ce 01       	movw	r24, r28
      f2:	01 96       	adiw	r24, 0x01	; 1
      f4:	0e 94 07 04 	call	0x80e	; 0x80e <shiftOutMultiple>

	LCD_PrintTwoLines("Waiting for Cmd", "", 0);
      f8:	40 e0       	ldi	r20, 0x00	; 0
      fa:	50 e0       	ldi	r21, 0x00	; 0
      fc:	69 e3       	ldi	r22, 0x39	; 57
      fe:	71 e0       	ldi	r23, 0x01	; 1
     100:	82 e0       	ldi	r24, 0x02	; 2
     102:	91 e0       	ldi	r25, 0x01	; 1
     104:	0e 94 e5 01 	call	0x3ca	; 0x3ca <LCD_PrintTwoLines>
}
     108:	0f 90       	pop	r0
     10a:	df 91       	pop	r29
     10c:	cf 91       	pop	r28
     10e:	08 95       	ret

00000110 <I2C_Init>:
		} else {
		snprintf(line2, sizeof(line2), "TABLE: -          ");
	}
	LCD_SetCursor(0, 1);
	LCD_Print(line2);
}
     110:	10 92 b9 00 	sts	0x00B9, r1	; 0x8000b9 <__TEXT_REGION_LENGTH__+0x7f80b9>
     114:	88 e4       	ldi	r24, 0x48	; 72
     116:	80 93 b8 00 	sts	0x00B8, r24	; 0x8000b8 <__TEXT_REGION_LENGTH__+0x7f80b8>
     11a:	84 e0       	ldi	r24, 0x04	; 4
     11c:	80 93 bc 00 	sts	0x00BC, r24	; 0x8000bc <__TEXT_REGION_LENGTH__+0x7f80bc>
     120:	08 95       	ret

00000122 <I2C_Start>:
     122:	84 ea       	ldi	r24, 0xA4	; 164
     124:	80 93 bc 00 	sts	0x00BC, r24	; 0x8000bc <__TEXT_REGION_LENGTH__+0x7f80bc>
     128:	80 91 bc 00 	lds	r24, 0x00BC	; 0x8000bc <__TEXT_REGION_LENGTH__+0x7f80bc>
     12c:	88 23       	and	r24, r24
     12e:	e4 f7       	brge	.-8      	; 0x128 <I2C_Start+0x6>
     130:	08 95       	ret

00000132 <I2C_Stop>:
     132:	84 e9       	ldi	r24, 0x94	; 148
     134:	80 93 bc 00 	sts	0x00BC, r24	; 0x8000bc <__TEXT_REGION_LENGTH__+0x7f80bc>
     138:	80 91 bc 00 	lds	r24, 0x00BC	; 0x8000bc <__TEXT_REGION_LENGTH__+0x7f80bc>
     13c:	84 fd       	sbrc	r24, 4
     13e:	fc cf       	rjmp	.-8      	; 0x138 <I2C_Stop+0x6>
     140:	08 95       	ret

00000142 <I2C_Write>:
     142:	80 93 bb 00 	sts	0x00BB, r24	; 0x8000bb <__TEXT_REGION_LENGTH__+0x7f80bb>
     146:	84 e8       	ldi	r24, 0x84	; 132
     148:	80 93 bc 00 	sts	0x00BC, r24	; 0x8000bc <__TEXT_REGION_LENGTH__+0x7f80bc>
     14c:	80 91 bc 00 	lds	r24, 0x00BC	; 0x8000bc <__TEXT_REGION_LENGTH__+0x7f80bc>
     150:	88 23       	and	r24, r24
     152:	e4 f7       	brge	.-8      	; 0x14c <I2C_Write+0xa>
     154:	08 95       	ret

00000156 <LCD_Send>:
     156:	0f 93       	push	r16
     158:	1f 93       	push	r17
     15a:	cf 93       	push	r28
     15c:	df 93       	push	r29
     15e:	d8 2f       	mov	r29, r24
     160:	d0 7f       	andi	r29, 0xF0	; 240
     162:	d6 2b       	or	r29, r22
     164:	0d 2f       	mov	r16, r29
     166:	08 60       	ori	r16, 0x08	; 8
     168:	20 e1       	ldi	r18, 0x10	; 16
     16a:	82 9f       	mul	r24, r18
     16c:	c0 01       	movw	r24, r0
     16e:	11 24       	eor	r1, r1
     170:	c6 2f       	mov	r28, r22
     172:	c8 2b       	or	r28, r24
     174:	1c 2f       	mov	r17, r28
     176:	18 60       	ori	r17, 0x08	; 8
     178:	0e 94 91 00 	call	0x122	; 0x122 <I2C_Start>
     17c:	8e e4       	ldi	r24, 0x4E	; 78
     17e:	0e 94 a1 00 	call	0x142	; 0x142 <I2C_Write>
     182:	80 2f       	mov	r24, r16
     184:	0e 94 a1 00 	call	0x142	; 0x142 <I2C_Write>
     188:	8d 2f       	mov	r24, r29
     18a:	8c 60       	ori	r24, 0x0C	; 12
     18c:	0e 94 a1 00 	call	0x142	; 0x142 <I2C_Write>
     190:	80 2f       	mov	r24, r16
     192:	0e 94 a1 00 	call	0x142	; 0x142 <I2C_Write>
     196:	81 2f       	mov	r24, r17
     198:	0e 94 a1 00 	call	0x142	; 0x142 <I2C_Write>
     19c:	8c 2f       	mov	r24, r28
     19e:	8c 60       	ori	r24, 0x0C	; 12
     1a0:	0e 94 a1 00 	call	0x142	; 0x142 <I2C_Write>
     1a4:	81 2f       	mov	r24, r17
     1a6:	0e 94 a1 00 	call	0x142	; 0x142 <I2C_Write>
     1aa:	0e 94 99 00 	call	0x132	; 0x132 <I2C_Stop>
     1ae:	df 91       	pop	r29
     1b0:	cf 91       	pop	r28
     1b2:	1f 91       	pop	r17
     1b4:	0f 91       	pop	r16
     1b6:	08 95       	ret

000001b8 <LCD_Command>:
     1b8:	60 e0       	ldi	r22, 0x00	; 0
     1ba:	0e 94 ab 00 	call	0x156	; 0x156 <LCD_Send>
     1be:	8f e3       	ldi	r24, 0x3F	; 63
     1c0:	9f e1       	ldi	r25, 0x1F	; 31
     1c2:	01 97       	sbiw	r24, 0x01	; 1
     1c4:	f1 f7       	brne	.-4      	; 0x1c2 <LCD_Command+0xa>
     1c6:	00 c0       	rjmp	.+0      	; 0x1c8 <LCD_Command+0x10>
     1c8:	00 00       	nop
     1ca:	08 95       	ret

000001cc <LCD_Data>:
     1cc:	61 e0       	ldi	r22, 0x01	; 1
     1ce:	0e 94 ab 00 	call	0x156	; 0x156 <LCD_Send>
     1d2:	8f e3       	ldi	r24, 0x3F	; 63
     1d4:	9f e1       	ldi	r25, 0x1F	; 31
     1d6:	01 97       	sbiw	r24, 0x01	; 1
     1d8:	f1 f7       	brne	.-4      	; 0x1d6 <LCD_Data+0xa>
     1da:	00 c0       	rjmp	.+0      	; 0x1dc <LCD_Data+0x10>
     1dc:	00 00       	nop
     1de:	08 95       	ret

000001e0 <LCD_Init>:
     1e0:	2f ef       	ldi	r18, 0xFF	; 255
     1e2:	80 e7       	ldi	r24, 0x70	; 112
     1e4:	92 e0       	ldi	r25, 0x02	; 2
     1e6:	21 50       	subi	r18, 0x01	; 1
     1e8:	80 40       	sbci	r24, 0x00	; 0
     1ea:	90 40       	sbci	r25, 0x00	; 0
     1ec:	e1 f7       	brne	.-8      	; 0x1e6 <LCD_Init+0x6>
     1ee:	00 c0       	rjmp	.+0      	; 0x1f0 <LCD_Init+0x10>
     1f0:	00 00       	nop
     1f2:	83 e0       	ldi	r24, 0x03	; 3
     1f4:	0e 94 dc 00 	call	0x1b8	; 0x1b8 <LCD_Command>
     1f8:	8f e1       	ldi	r24, 0x1F	; 31
     1fa:	9e e4       	ldi	r25, 0x4E	; 78
     1fc:	01 97       	sbiw	r24, 0x01	; 1
     1fe:	f1 f7       	brne	.-4      	; 0x1fc <LCD_Init+0x1c>
     200:	00 c0       	rjmp	.+0      	; 0x202 <LCD_Init+0x22>
     202:	00 00       	nop
     204:	83 e0       	ldi	r24, 0x03	; 3
     206:	0e 94 dc 00 	call	0x1b8	; 0x1b8 <LCD_Command>
     20a:	87 e5       	ldi	r24, 0x57	; 87
     20c:	92 e0       	ldi	r25, 0x02	; 2
     20e:	01 97       	sbiw	r24, 0x01	; 1
     210:	f1 f7       	brne	.-4      	; 0x20e <LCD_Init+0x2e>
     212:	00 c0       	rjmp	.+0      	; 0x214 <LCD_Init+0x34>
     214:	00 00       	nop
     216:	83 e0       	ldi	r24, 0x03	; 3
     218:	0e 94 dc 00 	call	0x1b8	; 0x1b8 <LCD_Command>
     21c:	82 e0       	ldi	r24, 0x02	; 2
     21e:	0e 94 dc 00 	call	0x1b8	; 0x1b8 <LCD_Command>
     222:	88 e2       	ldi	r24, 0x28	; 40
     224:	0e 94 dc 00 	call	0x1b8	; 0x1b8 <LCD_Command>
     228:	88 e0       	ldi	r24, 0x08	; 8
     22a:	0e 94 dc 00 	call	0x1b8	; 0x1b8 <LCD_Command>
     22e:	81 e0       	ldi	r24, 0x01	; 1
     230:	0e 94 dc 00 	call	0x1b8	; 0x1b8 <LCD_Command>
     234:	8f e3       	ldi	r24, 0x3F	; 63
     236:	9f e1       	ldi	r25, 0x1F	; 31
     238:	01 97       	sbiw	r24, 0x01	; 1
     23a:	f1 f7       	brne	.-4      	; 0x238 <LCD_Init+0x58>
     23c:	00 c0       	rjmp	.+0      	; 0x23e <LCD_Init+0x5e>
     23e:	00 00       	nop
     240:	86 e0       	ldi	r24, 0x06	; 6
     242:	0e 94 dc 00 	call	0x1b8	; 0x1b8 <LCD_Command>
     246:	8c e0       	ldi	r24, 0x0C	; 12
     248:	0e 94 dc 00 	call	0x1b8	; 0x1b8 <LCD_Command>
     24c:	08 95       	ret

0000024e <LCD_Clear>:
     24e:	81 e0       	ldi	r24, 0x01	; 1
     250:	0e 94 dc 00 	call	0x1b8	; 0x1b8 <LCD_Command>
     254:	8f e3       	ldi	r24, 0x3F	; 63
     256:	9f e1       	ldi	r25, 0x1F	; 31
     258:	01 97       	sbiw	r24, 0x01	; 1
     25a:	f1 f7       	brne	.-4      	; 0x258 <LCD_Clear+0xa>
     25c:	00 c0       	rjmp	.+0      	; 0x25e <LCD_Clear+0x10>
     25e:	00 00       	nop
     260:	08 95       	ret

00000262 <LCD_SetCursor>:
     262:	cf 93       	push	r28
     264:	df 93       	push	r29
     266:	00 d0       	rcall	.+0      	; 0x268 <LCD_SetCursor+0x6>
     268:	00 d0       	rcall	.+0      	; 0x26a <LCD_SetCursor+0x8>
     26a:	cd b7       	in	r28, 0x3d	; 61
     26c:	de b7       	in	r29, 0x3e	; 62
     26e:	19 82       	std	Y+1, r1	; 0x01
     270:	90 e4       	ldi	r25, 0x40	; 64
     272:	9a 83       	std	Y+2, r25	; 0x02
     274:	94 e1       	ldi	r25, 0x14	; 20
     276:	9b 83       	std	Y+3, r25	; 0x03
     278:	94 e5       	ldi	r25, 0x54	; 84
     27a:	9c 83       	std	Y+4, r25	; 0x04
     27c:	e1 e0       	ldi	r30, 0x01	; 1
     27e:	f0 e0       	ldi	r31, 0x00	; 0
     280:	ec 0f       	add	r30, r28
     282:	fd 1f       	adc	r31, r29
     284:	e6 0f       	add	r30, r22
     286:	f1 1d       	adc	r31, r1
     288:	90 81       	ld	r25, Z
     28a:	89 0f       	add	r24, r25
     28c:	80 68       	ori	r24, 0x80	; 128
     28e:	0e 94 dc 00 	call	0x1b8	; 0x1b8 <LCD_Command>
     292:	0f 90       	pop	r0
     294:	0f 90       	pop	r0
     296:	0f 90       	pop	r0
     298:	0f 90       	pop	r0
     29a:	df 91       	pop	r29
     29c:	cf 91       	pop	r28
     29e:	08 95       	ret

000002a0 <LCD_ClearLine>:
     2a0:	cf 93       	push	r28
     2a2:	df 93       	push	r29
     2a4:	d8 2f       	mov	r29, r24
     2a6:	68 2f       	mov	r22, r24
     2a8:	80 e0       	ldi	r24, 0x00	; 0
     2aa:	0e 94 31 01 	call	0x262	; 0x262 <LCD_SetCursor>
     2ae:	c0 e0       	ldi	r28, 0x00	; 0
     2b0:	04 c0       	rjmp	.+8      	; 0x2ba <LCD_ClearLine+0x1a>
     2b2:	80 e2       	ldi	r24, 0x20	; 32
     2b4:	0e 94 e6 00 	call	0x1cc	; 0x1cc <LCD_Data>
     2b8:	cf 5f       	subi	r28, 0xFF	; 255
     2ba:	c0 31       	cpi	r28, 0x10	; 16
     2bc:	d0 f3       	brcs	.-12     	; 0x2b2 <LCD_ClearLine+0x12>
     2be:	6d 2f       	mov	r22, r29
     2c0:	80 e0       	ldi	r24, 0x00	; 0
     2c2:	0e 94 31 01 	call	0x262	; 0x262 <LCD_SetCursor>
     2c6:	df 91       	pop	r29
     2c8:	cf 91       	pop	r28
     2ca:	08 95       	ret

000002cc <LCD_Print>:
     2cc:	cf 93       	push	r28
     2ce:	df 93       	push	r29
     2d0:	ec 01       	movw	r28, r24
     2d2:	03 c0       	rjmp	.+6      	; 0x2da <LCD_Print+0xe>
     2d4:	21 96       	adiw	r28, 0x01	; 1
     2d6:	0e 94 e6 00 	call	0x1cc	; 0x1cc <LCD_Data>
     2da:	88 81       	ld	r24, Y
     2dc:	81 11       	cpse	r24, r1
     2de:	fa cf       	rjmp	.-12     	; 0x2d4 <LCD_Print+0x8>
     2e0:	df 91       	pop	r29
     2e2:	cf 91       	pop	r28
     2e4:	08 95       	ret

000002e6 <LCD_Blink>:
     2e6:	af 92       	push	r10
     2e8:	bf 92       	push	r11
     2ea:	cf 92       	push	r12
     2ec:	df 92       	push	r13
     2ee:	ef 92       	push	r14
     2f0:	ff 92       	push	r15
     2f2:	0f 93       	push	r16
     2f4:	1f 93       	push	r17
     2f6:	cf 93       	push	r28
     2f8:	df 93       	push	r29
     2fa:	cd b7       	in	r28, 0x3d	; 61
     2fc:	de b7       	in	r29, 0x3e	; 62
     2fe:	fc 01       	movw	r30, r24
     300:	0d b7       	in	r16, 0x3d	; 61
     302:	1e b7       	in	r17, 0x3e	; 62
     304:	dc 01       	movw	r26, r24
     306:	0d 90       	ld	r0, X+
     308:	00 20       	and	r0, r0
     30a:	e9 f7       	brne	.-6      	; 0x306 <LCD_Blink+0x20>
     30c:	11 97       	sbiw	r26, 0x01	; 1
     30e:	9d 01       	movw	r18, r26
     310:	28 1b       	sub	r18, r24
     312:	39 0b       	sbc	r19, r25
     314:	80 91 85 01 	lds	r24, 0x0185	; 0x800185 <counter.2165>
     318:	90 e0       	ldi	r25, 0x00	; 0
     31a:	01 96       	adiw	r24, 0x01	; 1
     31c:	6f ef       	ldi	r22, 0xFF	; 255
     31e:	70 e0       	ldi	r23, 0x00	; 0
     320:	0e 94 04 05 	call	0xa08	; 0xa08 <__divmodhi4>
     324:	80 93 85 01 	sts	0x0185, r24	; 0x800185 <counter.2165>
     328:	9d ec       	ldi	r25, 0xCD	; 205
     32a:	89 9f       	mul	r24, r25
     32c:	91 2d       	mov	r25, r1
     32e:	11 24       	eor	r1, r1
     330:	92 95       	swap	r25
     332:	9f 70       	andi	r25, 0x0F	; 15
     334:	99 0f       	add	r25, r25
     336:	99 0f       	add	r25, r25
     338:	49 2f       	mov	r20, r25
     33a:	44 0f       	add	r20, r20
     33c:	44 0f       	add	r20, r20
     33e:	94 0f       	add	r25, r20
     340:	98 13       	cpse	r25, r24
     342:	07 c0       	rjmp	.+14     	; 0x352 <LCD_Blink+0x6c>
     344:	81 e0       	ldi	r24, 0x01	; 1
     346:	90 91 84 01 	lds	r25, 0x0184	; 0x800184 <__data_end>
     34a:	91 11       	cpse	r25, r1
     34c:	80 e0       	ldi	r24, 0x00	; 0
     34e:	80 93 84 01 	sts	0x0184, r24	; 0x800184 <__data_end>
     352:	80 91 84 01 	lds	r24, 0x0184	; 0x800184 <__data_end>
     356:	88 23       	and	r24, r24
     358:	29 f1       	breq	.+74     	; 0x3a4 <LCD_Blink+0xbe>
     35a:	cd b6       	in	r12, 0x3d	; 61
     35c:	de b6       	in	r13, 0x3e	; 62
     35e:	79 01       	movw	r14, r18
     360:	ff 24       	eor	r15, r15
     362:	c7 01       	movw	r24, r14
     364:	01 96       	adiw	r24, 0x01	; 1
     366:	2d b7       	in	r18, 0x3d	; 61
     368:	3e b7       	in	r19, 0x3e	; 62
     36a:	28 1b       	sub	r18, r24
     36c:	39 0b       	sbc	r19, r25
     36e:	0f b6       	in	r0, 0x3f	; 63
     370:	f8 94       	cli
     372:	3e bf       	out	0x3e, r19	; 62
     374:	0f be       	out	0x3f, r0	; 63
     376:	2d bf       	out	0x3d, r18	; 61
     378:	8d b7       	in	r24, 0x3d	; 61
     37a:	9e b7       	in	r25, 0x3e	; 62
     37c:	01 96       	adiw	r24, 0x01	; 1
     37e:	5c 01       	movw	r10, r24
     380:	a7 01       	movw	r20, r14
     382:	60 e2       	ldi	r22, 0x20	; 32
     384:	70 e0       	ldi	r23, 0x00	; 0
     386:	0e 94 2c 05 	call	0xa58	; 0xa58 <memset>
     38a:	f5 01       	movw	r30, r10
     38c:	ee 0d       	add	r30, r14
     38e:	ff 1d       	adc	r31, r15
     390:	10 82       	st	Z, r1
     392:	c5 01       	movw	r24, r10
     394:	0e 94 66 01 	call	0x2cc	; 0x2cc <LCD_Print>
     398:	0f b6       	in	r0, 0x3f	; 63
     39a:	f8 94       	cli
     39c:	de be       	out	0x3e, r13	; 62
     39e:	0f be       	out	0x3f, r0	; 63
     3a0:	cd be       	out	0x3d, r12	; 61
     3a2:	03 c0       	rjmp	.+6      	; 0x3aa <LCD_Blink+0xc4>
     3a4:	cf 01       	movw	r24, r30
     3a6:	0e 94 66 01 	call	0x2cc	; 0x2cc <LCD_Print>
     3aa:	0f b6       	in	r0, 0x3f	; 63
     3ac:	f8 94       	cli
     3ae:	1e bf       	out	0x3e, r17	; 62
     3b0:	0f be       	out	0x3f, r0	; 63
     3b2:	0d bf       	out	0x3d, r16	; 61
     3b4:	df 91       	pop	r29
     3b6:	cf 91       	pop	r28
     3b8:	1f 91       	pop	r17
     3ba:	0f 91       	pop	r16
     3bc:	ff 90       	pop	r15
     3be:	ef 90       	pop	r14
     3c0:	df 90       	pop	r13
     3c2:	cf 90       	pop	r12
     3c4:	bf 90       	pop	r11
     3c6:	af 90       	pop	r10
     3c8:	08 95       	ret

000003ca <LCD_PrintTwoLines>:
     3ca:	ef 92       	push	r14
     3cc:	ff 92       	push	r15
     3ce:	0f 93       	push	r16
     3d0:	1f 93       	push	r17
     3d2:	cf 93       	push	r28
     3d4:	df 93       	push	r29
     3d6:	8c 01       	movw	r16, r24
     3d8:	7b 01       	movw	r14, r22
     3da:	ea 01       	movw	r28, r20
     3dc:	60 e0       	ldi	r22, 0x00	; 0
     3de:	80 e0       	ldi	r24, 0x00	; 0
     3e0:	0e 94 31 01 	call	0x262	; 0x262 <LCD_SetCursor>
     3e4:	c8 01       	movw	r24, r16
     3e6:	0e 94 66 01 	call	0x2cc	; 0x2cc <LCD_Print>
     3ea:	61 e0       	ldi	r22, 0x01	; 1
     3ec:	80 e0       	ldi	r24, 0x00	; 0
     3ee:	0e 94 31 01 	call	0x262	; 0x262 <LCD_SetCursor>
     3f2:	21 97       	sbiw	r28, 0x01	; 1
     3f4:	21 f4       	brne	.+8      	; 0x3fe <LCD_PrintTwoLines+0x34>
     3f6:	c7 01       	movw	r24, r14
     3f8:	0e 94 73 01 	call	0x2e6	; 0x2e6 <LCD_Blink>
     3fc:	03 c0       	rjmp	.+6      	; 0x404 <__EEPROM_REGION_LENGTH__+0x4>
     3fe:	c7 01       	movw	r24, r14
     400:	0e 94 66 01 	call	0x2cc	; 0x2cc <LCD_Print>
     404:	df 91       	pop	r29
     406:	cf 91       	pop	r28
     408:	1f 91       	pop	r17
     40a:	0f 91       	pop	r16
     40c:	ff 90       	pop	r15
     40e:	ef 90       	pop	r14
     410:	08 95       	ret

00000412 <LCD_UpdateLine1>:

void LCD_UpdateLine1(char* str) {
     412:	cf 93       	push	r28
     414:	df 93       	push	r29
     416:	ec 01       	movw	r28, r24
	LCD_SetCursor(0, 0);
     418:	60 e0       	ldi	r22, 0x00	; 0
     41a:	80 e0       	ldi	r24, 0x00	; 0
     41c:	0e 94 31 01 	call	0x262	; 0x262 <LCD_SetCursor>
	LCD_ClearLine(0);
     420:	80 e0       	ldi	r24, 0x00	; 0
     422:	0e 94 50 01 	call	0x2a0	; 0x2a0 <LCD_ClearLine>
	LCD_Print(str);
     426:	ce 01       	movw	r24, r28
     428:	0e 94 66 01 	call	0x2cc	; 0x2cc <LCD_Print>
     42c:	df 91       	pop	r29
     42e:	cf 91       	pop	r28
     430:	08 95       	ret

00000432 <get_triggered_sensor>:
static inline bool is_button_pressed(uint8_t pinState, uint8_t buttonPin) {
	return !(pinState & (1 << buttonPin));
}

int8_t get_triggered_sensor(uint8_t states) {
	for (uint8_t i = 0; i < 8; i++) {
     432:	90 e0       	ldi	r25, 0x00	; 0
     434:	98 30       	cpi	r25, 0x08	; 8
     436:	78 f4       	brcc	.+30     	; 0x456 <get_triggered_sensor+0x24>
		if (states & (1 << i)) {
     438:	28 2f       	mov	r18, r24
     43a:	30 e0       	ldi	r19, 0x00	; 0
     43c:	09 2e       	mov	r0, r25
     43e:	02 c0       	rjmp	.+4      	; 0x444 <get_triggered_sensor+0x12>
     440:	35 95       	asr	r19
     442:	27 95       	ror	r18
     444:	0a 94       	dec	r0
     446:	e2 f7       	brpl	.-8      	; 0x440 <get_triggered_sensor+0xe>
     448:	20 ff       	sbrs	r18, 0
     44a:	03 c0       	rjmp	.+6      	; 0x452 <get_triggered_sensor+0x20>
			return i + SENSOR_INDEX_OFFSET;
     44c:	81 e0       	ldi	r24, 0x01	; 1
     44e:	89 0f       	add	r24, r25
     450:	08 95       	ret
static inline bool is_button_pressed(uint8_t pinState, uint8_t buttonPin) {
	return !(pinState & (1 << buttonPin));
}

int8_t get_triggered_sensor(uint8_t states) {
	for (uint8_t i = 0; i < 8; i++) {
     452:	9f 5f       	subi	r25, 0xFF	; 255
     454:	ef cf       	rjmp	.-34     	; 0x434 <get_triggered_sensor+0x2>
		if (states & (1 << i)) {
			return i + SENSOR_INDEX_OFFSET;
		}
	}
	return -1;
     456:	8f ef       	ldi	r24, 0xFF	; 255
}
     458:	08 95       	ret

0000045a <_Z18activate_ext_logicv>:

void activate_ext_logic(void) {
	PORTB |= (1 << POWER_INDICATION_ENABLE);
     45a:	85 b1       	in	r24, 0x05	; 5
     45c:	81 60       	ori	r24, 0x01	; 1
     45e:	85 b9       	out	0x05, r24	; 5
     460:	08 95       	ret

00000462 <_Z20update_lcd_for_tablea>:
}

void update_lcd_for_table(int8_t tableIndex) {
     462:	cf 93       	push	r28
     464:	df 93       	push	r29
     466:	cd b7       	in	r28, 0x3d	; 61
     468:	de b7       	in	r29, 0x3e	; 62
     46a:	61 97       	sbiw	r28, 0x11	; 17
     46c:	0f b6       	in	r0, 0x3f	; 63
     46e:	f8 94       	cli
     470:	de bf       	out	0x3e, r29	; 62
     472:	0f be       	out	0x3f, r0	; 63
     474:	cd bf       	out	0x3d, r28	; 61
	char line2[17];
	if (tableIndex > 0) {
     476:	18 16       	cp	r1, r24
     478:	cc f4       	brge	.+50     	; 0x4ac <_Z20update_lcd_for_tablea+0x4a>
		snprintf(line2, sizeof(line2), "TABLE: %-2d        ", tableIndex);
     47a:	28 2f       	mov	r18, r24
     47c:	08 2e       	mov	r0, r24
     47e:	00 0c       	add	r0, r0
     480:	33 0b       	sbc	r19, r19
     482:	3f 93       	push	r19
     484:	8f 93       	push	r24
     486:	82 e1       	ldi	r24, 0x12	; 18
     488:	91 e0       	ldi	r25, 0x01	; 1
     48a:	9f 93       	push	r25
     48c:	8f 93       	push	r24
     48e:	1f 92       	push	r1
     490:	81 e1       	ldi	r24, 0x11	; 17
     492:	8f 93       	push	r24
     494:	ce 01       	movw	r24, r28
     496:	01 96       	adiw	r24, 0x01	; 1
     498:	9f 93       	push	r25
     49a:	8f 93       	push	r24
     49c:	0e 94 33 05 	call	0xa66	; 0xa66 <snprintf>
     4a0:	0f b6       	in	r0, 0x3f	; 63
     4a2:	f8 94       	cli
     4a4:	de bf       	out	0x3e, r29	; 62
     4a6:	0f be       	out	0x3f, r0	; 63
     4a8:	cd bf       	out	0x3d, r28	; 61
     4aa:	13 c0       	rjmp	.+38     	; 0x4d2 <_Z20update_lcd_for_tablea+0x70>
		} else {
		snprintf(line2, sizeof(line2), "TABLE: -           ");
     4ac:	86 e2       	ldi	r24, 0x26	; 38
     4ae:	91 e0       	ldi	r25, 0x01	; 1
     4b0:	9f 93       	push	r25
     4b2:	8f 93       	push	r24
     4b4:	1f 92       	push	r1
     4b6:	81 e1       	ldi	r24, 0x11	; 17
     4b8:	8f 93       	push	r24
     4ba:	ce 01       	movw	r24, r28
     4bc:	01 96       	adiw	r24, 0x01	; 1
     4be:	9f 93       	push	r25
     4c0:	8f 93       	push	r24
     4c2:	0e 94 33 05 	call	0xa66	; 0xa66 <snprintf>
     4c6:	0f 90       	pop	r0
     4c8:	0f 90       	pop	r0
     4ca:	0f 90       	pop	r0
     4cc:	0f 90       	pop	r0
     4ce:	0f 90       	pop	r0
     4d0:	0f 90       	pop	r0
	}
	LCD_PrintTwoLines("Select command", line2, 0);
     4d2:	40 e0       	ldi	r20, 0x00	; 0
     4d4:	50 e0       	ldi	r21, 0x00	; 0
     4d6:	be 01       	movw	r22, r28
     4d8:	6f 5f       	subi	r22, 0xFF	; 255
     4da:	7f 4f       	sbci	r23, 0xFF	; 255
     4dc:	8a e3       	ldi	r24, 0x3A	; 58
     4de:	91 e0       	ldi	r25, 0x01	; 1
     4e0:	0e 94 e5 01 	call	0x3ca	; 0x3ca <LCD_PrintTwoLines>
}
     4e4:	61 96       	adiw	r28, 0x11	; 17
     4e6:	0f b6       	in	r0, 0x3f	; 63
     4e8:	f8 94       	cli
     4ea:	de bf       	out	0x3e, r29	; 62
     4ec:	0f be       	out	0x3f, r0	; 63
     4ee:	cd bf       	out	0x3d, r28	; 61
     4f0:	df 91       	pop	r29
     4f2:	cf 91       	pop	r28
     4f4:	08 95       	ret

000004f6 <_Z31update_shift_register_for_tablea>:

void update_shift_register_for_table(int8_t tableIndex) {
	if (tableIndex > 0) {
     4f6:	18 16       	cp	r1, r24
     4f8:	64 f4       	brge	.+24     	; 0x512 <_Z31update_shift_register_for_tablea+0x1c>
		outputByte = (1 << (tableIndex - 1));
     4fa:	08 2e       	mov	r0, r24
     4fc:	00 0c       	add	r0, r0
     4fe:	99 0b       	sbc	r25, r25
     500:	01 97       	sbiw	r24, 0x01	; 1
     502:	91 e0       	ldi	r25, 0x01	; 1
     504:	01 c0       	rjmp	.+2      	; 0x508 <_Z31update_shift_register_for_tablea+0x12>
     506:	99 0f       	add	r25, r25
     508:	8a 95       	dec	r24
     50a:	ea f7       	brpl	.-6      	; 0x506 <_Z31update_shift_register_for_tablea+0x10>
     50c:	90 93 87 01 	sts	0x0187, r25	; 0x800187 <outputByte>
     510:	02 c0       	rjmp	.+4      	; 0x516 <_Z31update_shift_register_for_tablea+0x20>
		} else {
		outputByte = 0x00;
     512:	10 92 87 01 	sts	0x0187, r1	; 0x800187 <outputByte>
	}
	shiftOut(outputByte);
     516:	80 91 87 01 	lds	r24, 0x0187	; 0x800187 <outputByte>
     51a:	0e 94 de 03 	call	0x7bc	; 0x7bc <shiftOut>
	latchData();
     51e:	0e 94 ff 03 	call	0x7fe	; 0x7fe <latchData>
     522:	08 95       	ret

00000524 <_Z19handle_table_changea>:
}

void handle_table_change(int8_t newTable) {
	currentTable = newTable;
     524:	80 93 01 01 	sts	0x0101, r24	; 0x800101 <currentTable>
	update_lcd_for_table(currentTable);
     528:	0e 94 31 02 	call	0x462	; 0x462 <_Z20update_lcd_for_tablea>
	update_shift_register_for_table(currentTable);
     52c:	80 91 01 01 	lds	r24, 0x0101	; 0x800101 <currentTable>
     530:	0e 94 7b 02 	call	0x4f6	; 0x4f6 <_Z31update_shift_register_for_tablea>
     534:	08 95       	ret

00000536 <_Z21handle_detected_tablea>:
}

void handle_detected_table(int8_t detectedTable) {
     536:	0f 93       	push	r16
     538:	1f 93       	push	r17
     53a:	cf 93       	push	r28
     53c:	df 93       	push	r29
     53e:	cd b7       	in	r28, 0x3d	; 61
     540:	de b7       	in	r29, 0x3e	; 62
     542:	61 97       	sbiw	r28, 0x11	; 17
     544:	0f b6       	in	r0, 0x3f	; 63
     546:	f8 94       	cli
     548:	de bf       	out	0x3e, r29	; 62
     54a:	0f be       	out	0x3f, r0	; 63
     54c:	cd bf       	out	0x3d, r28	; 61
	if (is_moving) return;
     54e:	90 91 86 01 	lds	r25, 0x0186	; 0x800186 <is_moving>
     552:	91 11       	cpse	r25, r1
     554:	2c c0       	rjmp	.+88     	; 0x5ae <_Z21handle_detected_tablea+0x78>
	if (detectedTable <= 0) return;
     556:	18 16       	cp	r1, r24
     558:	54 f5       	brge	.+84     	; 0x5ae <_Z21handle_detected_tablea+0x78>
	if (detectedTable == currentTable) return;
     55a:	90 91 01 01 	lds	r25, 0x0101	; 0x800101 <currentTable>
     55e:	89 17       	cp	r24, r25
     560:	31 f1       	breq	.+76     	; 0x5ae <_Z21handle_detected_tablea+0x78>

	handle_table_change(detectedTable);
     562:	0e 94 92 02 	call	0x524	; 0x524 <_Z19handle_table_changea>

	char line2[17];
	snprintf(line2, sizeof(line2), "TABLE: %-2d        ", currentTable);
     566:	80 91 01 01 	lds	r24, 0x0101	; 0x800101 <currentTable>
     56a:	28 2f       	mov	r18, r24
     56c:	08 2e       	mov	r0, r24
     56e:	00 0c       	add	r0, r0
     570:	33 0b       	sbc	r19, r19
     572:	3f 93       	push	r19
     574:	8f 93       	push	r24
     576:	82 e1       	ldi	r24, 0x12	; 18
     578:	91 e0       	ldi	r25, 0x01	; 1
     57a:	9f 93       	push	r25
     57c:	8f 93       	push	r24
     57e:	1f 92       	push	r1
     580:	81 e1       	ldi	r24, 0x11	; 17
     582:	8f 93       	push	r24
     584:	8e 01       	movw	r16, r28
     586:	0f 5f       	subi	r16, 0xFF	; 255
     588:	1f 4f       	sbci	r17, 0xFF	; 255
     58a:	1f 93       	push	r17
     58c:	0f 93       	push	r16
     58e:	0e 94 33 05 	call	0xa66	; 0xa66 <snprintf>
	LCD_Clear();
     592:	0e 94 27 01 	call	0x24e	; 0x24e <LCD_Clear>
	LCD_PrintTwoLines("Select command", line2, 0);
     596:	40 e0       	ldi	r20, 0x00	; 0
     598:	50 e0       	ldi	r21, 0x00	; 0
     59a:	b8 01       	movw	r22, r16
     59c:	8a e3       	ldi	r24, 0x3A	; 58
     59e:	91 e0       	ldi	r25, 0x01	; 1
     5a0:	0e 94 e5 01 	call	0x3ca	; 0x3ca <LCD_PrintTwoLines>
     5a4:	0f b6       	in	r0, 0x3f	; 63
     5a6:	f8 94       	cli
     5a8:	de bf       	out	0x3e, r29	; 62
     5aa:	0f be       	out	0x3f, r0	; 63
     5ac:	cd bf       	out	0x3d, r28	; 61
}
     5ae:	61 96       	adiw	r28, 0x11	; 17
     5b0:	0f b6       	in	r0, 0x3f	; 63
     5b2:	f8 94       	cli
     5b4:	de bf       	out	0x3e, r29	; 62
     5b6:	0f be       	out	0x3f, r0	; 63
     5b8:	cd bf       	out	0x3d, r28	; 61
     5ba:	df 91       	pop	r29
     5bc:	cf 91       	pop	r28
     5be:	1f 91       	pop	r17
     5c0:	0f 91       	pop	r16
     5c2:	08 95       	ret

000005c4 <_Z22handle_control_buttonsv>:

void handle_control_buttons(void) {
     5c4:	cf 93       	push	r28
     5c6:	df 93       	push	r29
     5c8:	cd b7       	in	r28, 0x3d	; 61
     5ca:	de b7       	in	r29, 0x3e	; 62
     5cc:	61 97       	sbiw	r28, 0x11	; 17
     5ce:	0f b6       	in	r0, 0x3f	; 63
     5d0:	f8 94       	cli
     5d2:	de bf       	out	0x3e, r29	; 62
     5d4:	0f be       	out	0x3f, r0	; 63
     5d6:	cd bf       	out	0x3d, r28	; 61
	if (currentTable <= 0) return;
     5d8:	80 91 01 01 	lds	r24, 0x0101	; 0x800101 <currentTable>
     5dc:	18 16       	cp	r1, r24
     5de:	0c f0       	brlt	.+2      	; 0x5e2 <_Z22handle_control_buttonsv+0x1e>
     5e0:	a2 c0       	rjmp	.+324    	; 0x726 <_Z22handle_control_buttonsv+0x162>

	uint8_t pinState = PINC;
     5e2:	86 b1       	in	r24, 0x06	; 6
int8_t currentTable = -1;
uint8_t currentCommand = CMD_STOP;
uint8_t is_moving = 0;

static inline bool is_button_pressed(uint8_t pinState, uint8_t buttonPin) {
	return !(pinState & (1 << buttonPin));
     5e4:	81 fb       	bst	r24, 1
     5e6:	22 27       	eor	r18, r18
     5e8:	20 f9       	bld	r18, 0
     5ea:	30 e0       	ldi	r19, 0x00	; 0
     5ec:	82 fb       	bst	r24, 2
     5ee:	44 27       	eor	r20, r20
     5f0:	40 f9       	bld	r20, 0
     5f2:	50 e0       	ldi	r21, 0x00	; 0

	bool forwardPressed  = is_button_pressed(pinState, BUTTON_FORWARD_PIN);
	bool backwardPressed = is_button_pressed(pinState, BUTTON_BACKWARD_PIN);
	bool stopPressed     = is_button_pressed(pinState, BUTTON_STOP_PIN);

	bool isForward = (currentCommand == CMD_FORWARD);
     5f4:	90 91 00 01 	lds	r25, 0x0100	; 0x800100 <__DATA_REGION_ORIGIN__>
	bool isBackward = (currentCommand == CMD_BACKWARD);
	bool isStop = (currentCommand == CMD_STOP);

	if (forwardPressed && !isForward) {
     5f8:	83 fd       	sbrc	r24, 3
     5fa:	30 c0       	rjmp	.+96     	; 0x65c <_Z22handle_control_buttonsv+0x98>
     5fc:	90 32       	cpi	r25, 0x20	; 32
     5fe:	71 f1       	breq	.+92     	; 0x65c <_Z22handle_control_buttonsv+0x98>
		currentCommand = CMD_FORWARD;
     600:	80 e2       	ldi	r24, 0x20	; 32
     602:	80 93 00 01 	sts	0x0100, r24	; 0x800100 <__DATA_REGION_ORIGIN__>
		is_moving = 1;
     606:	81 e0       	ldi	r24, 0x01	; 1
     608:	80 93 86 01 	sts	0x0186, r24	; 0x800186 <is_moving>
		PORTB |= (1 << INDICATOR_FORWARD_PIN);
     60c:	85 b1       	in	r24, 0x05	; 5
     60e:	84 60       	ori	r24, 0x04	; 4
     610:	85 b9       	out	0x05, r24	; 5
		PORTB &= ~(1 << INDICATOR_BACKWARD_PIN);
     612:	85 b1       	in	r24, 0x05	; 5
     614:	87 7f       	andi	r24, 0xF7	; 247
     616:	85 b9       	out	0x05, r24	; 5
		ack = send_command_with_ack(CMD_FORWARD, currentTable, 0x00);
     618:	60 91 01 01 	lds	r22, 0x0101	; 0x800101 <currentTable>
     61c:	40 e0       	ldi	r20, 0x00	; 0
     61e:	80 e2       	ldi	r24, 0x20	; 32
     620:	0e 94 d0 04 	call	0x9a0	; 0x9a0 <send_command_with_ack>
		snprintf(cmdLine, sizeof(cmdLine), "FORWARD: %s", ack ? "OK" : "FAIL");
     624:	88 23       	and	r24, r24
     626:	19 f0       	breq	.+6      	; 0x62e <_Z22handle_control_buttonsv+0x6a>
     628:	89 e4       	ldi	r24, 0x49	; 73
     62a:	91 e0       	ldi	r25, 0x01	; 1
     62c:	02 c0       	rjmp	.+4      	; 0x632 <_Z22handle_control_buttonsv+0x6e>
     62e:	8c e4       	ldi	r24, 0x4C	; 76
     630:	91 e0       	ldi	r25, 0x01	; 1
     632:	9f 93       	push	r25
     634:	8f 93       	push	r24
     636:	81 e5       	ldi	r24, 0x51	; 81
     638:	91 e0       	ldi	r25, 0x01	; 1
     63a:	9f 93       	push	r25
     63c:	8f 93       	push	r24
     63e:	1f 92       	push	r1
     640:	81 e1       	ldi	r24, 0x11	; 17
     642:	8f 93       	push	r24
     644:	ce 01       	movw	r24, r28
     646:	01 96       	adiw	r24, 0x01	; 1
     648:	9f 93       	push	r25
     64a:	8f 93       	push	r24
     64c:	0e 94 33 05 	call	0xa66	; 0xa66 <snprintf>
     650:	0f b6       	in	r0, 0x3f	; 63
     652:	f8 94       	cli
     654:	de bf       	out	0x3e, r29	; 62
     656:	0f be       	out	0x3f, r0	; 63
     658:	cd bf       	out	0x3d, r28	; 61
     65a:	61 c0       	rjmp	.+194    	; 0x71e <_Z22handle_control_buttonsv+0x15a>

		} else if (backwardPressed && !isBackward) {
     65c:	23 2b       	or	r18, r19
     65e:	81 f5       	brne	.+96     	; 0x6c0 <_Z22handle_control_buttonsv+0xfc>
     660:	91 32       	cpi	r25, 0x21	; 33
     662:	71 f1       	breq	.+92     	; 0x6c0 <_Z22handle_control_buttonsv+0xfc>
		currentCommand = CMD_BACKWARD;
     664:	81 e2       	ldi	r24, 0x21	; 33
     666:	80 93 00 01 	sts	0x0100, r24	; 0x800100 <__DATA_REGION_ORIGIN__>
		is_moving = 1;
     66a:	81 e0       	ldi	r24, 0x01	; 1
     66c:	80 93 86 01 	sts	0x0186, r24	; 0x800186 <is_moving>
		PORTB |= (1 << INDICATOR_BACKWARD_PIN);
     670:	85 b1       	in	r24, 0x05	; 5
     672:	88 60       	ori	r24, 0x08	; 8
     674:	85 b9       	out	0x05, r24	; 5
		PORTB &= ~(1 << INDICATOR_FORWARD_PIN);
     676:	85 b1       	in	r24, 0x05	; 5
     678:	8b 7f       	andi	r24, 0xFB	; 251
     67a:	85 b9       	out	0x05, r24	; 5
		ack = send_command_with_ack(CMD_BACKWARD, currentTable, 0x00);
     67c:	60 91 01 01 	lds	r22, 0x0101	; 0x800101 <currentTable>
     680:	40 e0       	ldi	r20, 0x00	; 0
     682:	81 e2       	ldi	r24, 0x21	; 33
     684:	0e 94 d0 04 	call	0x9a0	; 0x9a0 <send_command_with_ack>
		snprintf(cmdLine, sizeof(cmdLine), "BACK: %s", ack ? "OK" : "FAIL");
     688:	88 23       	and	r24, r24
     68a:	19 f0       	breq	.+6      	; 0x692 <_Z22handle_control_buttonsv+0xce>
     68c:	89 e4       	ldi	r24, 0x49	; 73
     68e:	91 e0       	ldi	r25, 0x01	; 1
     690:	02 c0       	rjmp	.+4      	; 0x696 <_Z22handle_control_buttonsv+0xd2>
     692:	8c e4       	ldi	r24, 0x4C	; 76
     694:	91 e0       	ldi	r25, 0x01	; 1
     696:	9f 93       	push	r25
     698:	8f 93       	push	r24
     69a:	8d e5       	ldi	r24, 0x5D	; 93
     69c:	91 e0       	ldi	r25, 0x01	; 1
     69e:	9f 93       	push	r25
     6a0:	8f 93       	push	r24
     6a2:	1f 92       	push	r1
     6a4:	81 e1       	ldi	r24, 0x11	; 17
     6a6:	8f 93       	push	r24
     6a8:	ce 01       	movw	r24, r28
     6aa:	01 96       	adiw	r24, 0x01	; 1
     6ac:	9f 93       	push	r25
     6ae:	8f 93       	push	r24
     6b0:	0e 94 33 05 	call	0xa66	; 0xa66 <snprintf>
     6b4:	0f b6       	in	r0, 0x3f	; 63
     6b6:	f8 94       	cli
     6b8:	de bf       	out	0x3e, r29	; 62
     6ba:	0f be       	out	0x3f, r0	; 63
     6bc:	cd bf       	out	0x3d, r28	; 61
     6be:	2f c0       	rjmp	.+94     	; 0x71e <_Z22handle_control_buttonsv+0x15a>

		} else if (stopPressed && !isStop) {
     6c0:	45 2b       	or	r20, r21
     6c2:	89 f5       	brne	.+98     	; 0x726 <_Z22handle_control_buttonsv+0x162>
     6c4:	90 33       	cpi	r25, 0x30	; 48
     6c6:	79 f1       	breq	.+94     	; 0x726 <_Z22handle_control_buttonsv+0x162>
		currentCommand = CMD_STOP;
     6c8:	80 e3       	ldi	r24, 0x30	; 48
     6ca:	80 93 00 01 	sts	0x0100, r24	; 0x800100 <__DATA_REGION_ORIGIN__>
		is_moving = 0;
     6ce:	10 92 86 01 	sts	0x0186, r1	; 0x800186 <is_moving>
		PORTB &= ~(1 << INDICATOR_FORWARD_PIN);
     6d2:	85 b1       	in	r24, 0x05	; 5
     6d4:	8b 7f       	andi	r24, 0xFB	; 251
     6d6:	85 b9       	out	0x05, r24	; 5
		PORTB &= ~(1 << INDICATOR_BACKWARD_PIN);
     6d8:	85 b1       	in	r24, 0x05	; 5
     6da:	87 7f       	andi	r24, 0xF7	; 247
     6dc:	85 b9       	out	0x05, r24	; 5
		ack = send_command_with_ack(CMD_STOP, 0x00, 0x00);
     6de:	40 e0       	ldi	r20, 0x00	; 0
     6e0:	60 e0       	ldi	r22, 0x00	; 0
     6e2:	80 e3       	ldi	r24, 0x30	; 48
     6e4:	0e 94 d0 04 	call	0x9a0	; 0x9a0 <send_command_with_ack>
		snprintf(cmdLine, sizeof(cmdLine), "STOP: %s", ack ? "OK" : "FAIL");
     6e8:	88 23       	and	r24, r24
     6ea:	19 f0       	breq	.+6      	; 0x6f2 <_Z22handle_control_buttonsv+0x12e>
     6ec:	89 e4       	ldi	r24, 0x49	; 73
     6ee:	91 e0       	ldi	r25, 0x01	; 1
     6f0:	02 c0       	rjmp	.+4      	; 0x6f6 <_Z22handle_control_buttonsv+0x132>
     6f2:	8c e4       	ldi	r24, 0x4C	; 76
     6f4:	91 e0       	ldi	r25, 0x01	; 1
     6f6:	9f 93       	push	r25
     6f8:	8f 93       	push	r24
     6fa:	86 e6       	ldi	r24, 0x66	; 102
     6fc:	91 e0       	ldi	r25, 0x01	; 1
     6fe:	9f 93       	push	r25
     700:	8f 93       	push	r24
     702:	1f 92       	push	r1
     704:	81 e1       	ldi	r24, 0x11	; 17
     706:	8f 93       	push	r24
     708:	ce 01       	movw	r24, r28
     70a:	01 96       	adiw	r24, 0x01	; 1
     70c:	9f 93       	push	r25
     70e:	8f 93       	push	r24
     710:	0e 94 33 05 	call	0xa66	; 0xa66 <snprintf>
     714:	0f b6       	in	r0, 0x3f	; 63
     716:	f8 94       	cli
     718:	de bf       	out	0x3e, r29	; 62
     71a:	0f be       	out	0x3f, r0	; 63
     71c:	cd bf       	out	0x3d, r28	; 61

		} else {
		return;
	}

	LCD_UpdateLine1(cmdLine);
     71e:	ce 01       	movw	r24, r28
     720:	01 96       	adiw	r24, 0x01	; 1
     722:	0e 94 09 02 	call	0x412	; 0x412 <LCD_UpdateLine1>
}
     726:	61 96       	adiw	r28, 0x11	; 17
     728:	0f b6       	in	r0, 0x3f	; 63
     72a:	f8 94       	cli
     72c:	de bf       	out	0x3e, r29	; 62
     72e:	0f be       	out	0x3f, r0	; 63
     730:	cd bf       	out	0x3d, r28	; 61
     732:	df 91       	pop	r29
     734:	cf 91       	pop	r28
     736:	08 95       	ret

00000738 <main>:


int main(void) {
	system_init();       // Číčöčŕëčçŕöč˙ ďîđňîâ, UART č 74HC165
     738:	0e 94 61 00 	call	0xc2	; 0xc2 <system_init>
	I2C_Init();          // Äë˙ LCD
     73c:	0e 94 88 00 	call	0x110	; 0x110 <I2C_Init>
	LCD_Init();
     740:	0e 94 f0 00 	call	0x1e0	; 0x1e0 <LCD_Init>
	LCD_Clear();
     744:	0e 94 27 01 	call	0x24e	; 0x24e <LCD_Clear>
	LCD_PrintTwoLines("Welcome", "Select table", 0);
     748:	40 e0       	ldi	r20, 0x00	; 0
     74a:	50 e0       	ldi	r21, 0x00	; 0
     74c:	6f e6       	ldi	r22, 0x6F	; 111
     74e:	71 e0       	ldi	r23, 0x01	; 1
     750:	8c e7       	ldi	r24, 0x7C	; 124
     752:	91 e0       	ldi	r25, 0x01	; 1
     754:	0e 94 e5 01 	call	0x3ca	; 0x3ca <LCD_PrintTwoLines>
	activate_ext_logic();
     758:	0e 94 2d 02 	call	0x45a	; 0x45a <_Z18activate_ext_logicv>

	while (1) {
		uint8_t rawBits = read_74HC165();
     75c:	0e 94 b8 03 	call	0x770	; 0x770 <read_74HC165>
		uint8_t invertedBits = ~rawBits;
		int8_t detectedTable = get_triggered_sensor(invertedBits);
     760:	80 95       	com	r24
     762:	0e 94 19 02 	call	0x432	; 0x432 <get_triggered_sensor>

		handle_detected_table(detectedTable);
     766:	0e 94 9b 02 	call	0x536	; 0x536 <_Z21handle_detected_tablea>
		handle_control_buttons();
     76a:	0e 94 e2 02 	call	0x5c4	; 0x5c4 <_Z22handle_control_buttonsv>
     76e:	f6 cf       	rjmp	.-20     	; 0x75c <main+0x24>

00000770 <read_74HC165>:
}

uint8_t read_74HC165(void) {
	uint8_t data = 0;

	PORTD &= ~(1 << LATCH_74HC165);
     770:	8b b1       	in	r24, 0x0b	; 11
     772:	8f 7b       	andi	r24, 0xBF	; 191
     774:	8b b9       	out	0x0b, r24	; 11
	#else
		//round up by default
		__ticks_dc = (uint32_t)(ceil(fabs(__tmp)));
	#endif

	__builtin_avr_delay_cycles(__ticks_dc);
     776:	00 c0       	rjmp	.+0      	; 0x778 <read_74HC165+0x8>
     778:	00 c0       	rjmp	.+0      	; 0x77a <read_74HC165+0xa>
     77a:	00 00       	nop
	_delay_us(5);
	PORTD |= (1 << LATCH_74HC165);
     77c:	8b b1       	in	r24, 0x0b	; 11
     77e:	80 64       	ori	r24, 0x40	; 64
     780:	8b b9       	out	0x0b, r24	; 11

	for (uint8_t i = 0; i < NUM_BITS_74HC595; i++) {
     782:	20 e0       	ldi	r18, 0x00	; 0
	uint8_t initialData[NUM_OF_74HC595] = {0};
	shiftOutMultiple(initialData, NUM_OF_74HC595);
}

uint8_t read_74HC165(void) {
	uint8_t data = 0;
     784:	80 e0       	ldi	r24, 0x00	; 0

	PORTD &= ~(1 << LATCH_74HC165);
	_delay_us(5);
	PORTD |= (1 << LATCH_74HC165);

	for (uint8_t i = 0; i < NUM_BITS_74HC595; i++) {
     786:	10 c0       	rjmp	.+32     	; 0x7a8 <read_74HC165+0x38>
		data <<= 1;
     788:	88 0f       	add	r24, r24
		PORTD &= ~(1 << CLOCK_74HC165);
     78a:	9b b1       	in	r25, 0x0b	; 11
     78c:	9f 7d       	andi	r25, 0xDF	; 223
     78e:	9b b9       	out	0x0b, r25	; 11
     790:	00 c0       	rjmp	.+0      	; 0x792 <read_74HC165+0x22>
     792:	00 c0       	rjmp	.+0      	; 0x794 <read_74HC165+0x24>
     794:	00 00       	nop
		_delay_us(5);

		if (PIND & (1 << DATA_74HC165)) {
     796:	4f 99       	sbic	0x09, 7	; 9
			data |= 1;
     798:	81 60       	ori	r24, 0x01	; 1
		}

		PORTD |= (1 << CLOCK_74HC165);
     79a:	9b b1       	in	r25, 0x0b	; 11
     79c:	90 62       	ori	r25, 0x20	; 32
     79e:	9b b9       	out	0x0b, r25	; 11
     7a0:	00 c0       	rjmp	.+0      	; 0x7a2 <read_74HC165+0x32>
     7a2:	00 c0       	rjmp	.+0      	; 0x7a4 <read_74HC165+0x34>
     7a4:	00 00       	nop

	PORTD &= ~(1 << LATCH_74HC165);
	_delay_us(5);
	PORTD |= (1 << LATCH_74HC165);

	for (uint8_t i = 0; i < NUM_BITS_74HC595; i++) {
     7a6:	2f 5f       	subi	r18, 0xFF	; 255
     7a8:	28 30       	cpi	r18, 0x08	; 8
     7aa:	70 f3       	brcs	.-36     	; 0x788 <read_74HC165+0x18>
		PORTD |= (1 << CLOCK_74HC165);
		_delay_us(5);
	}

	return data;
}
     7ac:	08 95       	ret

000007ae <init_74HC595_ports>:

void init_74HC595_ports(void) {
	DDRD |= (1 << DATA_74HC595) | (1 << CLOCK_74HC595) | (1 << LATCH_74HC595);
     7ae:	8a b1       	in	r24, 0x0a	; 10
     7b0:	8c 61       	ori	r24, 0x1C	; 28
     7b2:	8a b9       	out	0x0a, r24	; 10
	PORTD &= ~((1 << DATA_74HC595) | (1 << CLOCK_74HC595) | (1 << LATCH_74HC595));
     7b4:	8b b1       	in	r24, 0x0b	; 11
     7b6:	83 7e       	andi	r24, 0xE3	; 227
     7b8:	8b b9       	out	0x0b, r24	; 11
     7ba:	08 95       	ret

000007bc <shiftOut>:
}

void shiftOut(uint8_t data) {
	for (uint8_t i = 0; i < NUM_BITS_74HC595; i++) {
     7bc:	90 e0       	ldi	r25, 0x00	; 0
     7be:	1c c0       	rjmp	.+56     	; 0x7f8 <shiftOut+0x3c>
		if (data & (1 << (NUM_BITS_74HC595 - 1 - i))) {
     7c0:	47 e0       	ldi	r20, 0x07	; 7
     7c2:	50 e0       	ldi	r21, 0x00	; 0
     7c4:	49 1b       	sub	r20, r25
     7c6:	51 09       	sbc	r21, r1
     7c8:	28 2f       	mov	r18, r24
     7ca:	30 e0       	ldi	r19, 0x00	; 0
     7cc:	02 c0       	rjmp	.+4      	; 0x7d2 <shiftOut+0x16>
     7ce:	35 95       	asr	r19
     7d0:	27 95       	ror	r18
     7d2:	4a 95       	dec	r20
     7d4:	e2 f7       	brpl	.-8      	; 0x7ce <shiftOut+0x12>
     7d6:	20 ff       	sbrs	r18, 0
     7d8:	04 c0       	rjmp	.+8      	; 0x7e2 <shiftOut+0x26>
			PORTD |= (1 << DATA_74HC595);
     7da:	2b b1       	in	r18, 0x0b	; 11
     7dc:	24 60       	ori	r18, 0x04	; 4
     7de:	2b b9       	out	0x0b, r18	; 11
     7e0:	03 c0       	rjmp	.+6      	; 0x7e8 <shiftOut+0x2c>
			} else {
			PORTD &= ~(1 << DATA_74HC595);
     7e2:	2b b1       	in	r18, 0x0b	; 11
     7e4:	2b 7f       	andi	r18, 0xFB	; 251
     7e6:	2b b9       	out	0x0b, r18	; 11
		}

		PORTD |= (1 << CLOCK_74HC595);
     7e8:	2b b1       	in	r18, 0x0b	; 11
     7ea:	28 60       	ori	r18, 0x08	; 8
     7ec:	2b b9       	out	0x0b, r18	; 11
     7ee:	00 00       	nop
		_delay_us(1);
		PORTD &= ~(1 << CLOCK_74HC595);
     7f0:	2b b1       	in	r18, 0x0b	; 11
     7f2:	27 7f       	andi	r18, 0xF7	; 247
     7f4:	2b b9       	out	0x0b, r18	; 11
	DDRD |= (1 << DATA_74HC595) | (1 << CLOCK_74HC595) | (1 << LATCH_74HC595);
	PORTD &= ~((1 << DATA_74HC595) | (1 << CLOCK_74HC595) | (1 << LATCH_74HC595));
}

void shiftOut(uint8_t data) {
	for (uint8_t i = 0; i < NUM_BITS_74HC595; i++) {
     7f6:	9f 5f       	subi	r25, 0xFF	; 255
     7f8:	98 30       	cpi	r25, 0x08	; 8
     7fa:	10 f3       	brcs	.-60     	; 0x7c0 <shiftOut+0x4>

		PORTD |= (1 << CLOCK_74HC595);
		_delay_us(1);
		PORTD &= ~(1 << CLOCK_74HC595);
	}
}
     7fc:	08 95       	ret

000007fe <latchData>:

void latchData(void) {
	PORTD |= (1 << LATCH_74HC595);
     7fe:	8b b1       	in	r24, 0x0b	; 11
     800:	80 61       	ori	r24, 0x10	; 16
     802:	8b b9       	out	0x0b, r24	; 11
     804:	00 00       	nop
	_delay_us(1);
	PORTD &= ~(1 << LATCH_74HC595);
     806:	8b b1       	in	r24, 0x0b	; 11
     808:	8f 7e       	andi	r24, 0xEF	; 239
     80a:	8b b9       	out	0x0b, r24	; 11
     80c:	08 95       	ret

0000080e <shiftOutMultiple>:
}

void shiftOutMultiple(uint8_t *data, uint8_t count) {
     80e:	0f 93       	push	r16
     810:	1f 93       	push	r17
     812:	cf 93       	push	r28
     814:	df 93       	push	r29
     816:	8c 01       	movw	r16, r24
     818:	d6 2f       	mov	r29, r22

	PORTB |= (1 << POWER_INDICATION_ENABLE);
     81a:	85 b1       	in	r24, 0x05	; 5
     81c:	81 60       	ori	r24, 0x01	; 1
     81e:	85 b9       	out	0x05, r24	; 5

	for (uint8_t i = 0; i < count; i++) {
     820:	c0 e0       	ldi	r28, 0x00	; 0
     822:	07 c0       	rjmp	.+14     	; 0x832 <shiftOutMultiple+0x24>
		shiftOut(data[i]);
     824:	f8 01       	movw	r30, r16
     826:	ec 0f       	add	r30, r28
     828:	f1 1d       	adc	r31, r1
     82a:	80 81       	ld	r24, Z
     82c:	0e 94 de 03 	call	0x7bc	; 0x7bc <shiftOut>

void shiftOutMultiple(uint8_t *data, uint8_t count) {

	PORTB |= (1 << POWER_INDICATION_ENABLE);

	for (uint8_t i = 0; i < count; i++) {
     830:	cf 5f       	subi	r28, 0xFF	; 255
     832:	cd 17       	cp	r28, r29
     834:	b8 f3       	brcs	.-18     	; 0x824 <shiftOutMultiple+0x16>
		shiftOut(data[i]);
	}

	latchData();
     836:	0e 94 ff 03 	call	0x7fe	; 0x7fe <latchData>
}
     83a:	df 91       	pop	r29
     83c:	cf 91       	pop	r28
     83e:	1f 91       	pop	r17
     840:	0f 91       	pop	r16
     842:	08 95       	ret

00000844 <init_74HC165_ports>:
#include "shift_registers.h"
#include "config.h"

void init_74HC165_ports(void) {
     844:	cf 93       	push	r28
     846:	df 93       	push	r29
     848:	1f 92       	push	r1
     84a:	cd b7       	in	r28, 0x3d	; 61
     84c:	de b7       	in	r29, 0x3e	; 62
	DDRD |= (1 << CLOCK_74HC165) | (1 << LATCH_74HC165); // PD5 ? PD6 - ??????
     84e:	8a b1       	in	r24, 0x0a	; 10
     850:	80 66       	ori	r24, 0x60	; 96
     852:	8a b9       	out	0x0a, r24	; 10
	DDRD &= ~(1 << DATA_74HC165);                        // PD7 - ????
     854:	8a b1       	in	r24, 0x0a	; 10
     856:	8f 77       	andi	r24, 0x7F	; 127
     858:	8a b9       	out	0x0a, r24	; 10
	PORTD &= ~(1 << DATA_74HC165);
     85a:	8b b1       	in	r24, 0x0b	; 11
     85c:	8f 77       	andi	r24, 0x7F	; 127
     85e:	8b b9       	out	0x0b, r24	; 11
	
	uint8_t initialData[NUM_OF_74HC595] = {0};
     860:	19 82       	std	Y+1, r1	; 0x01
	shiftOutMultiple(initialData, NUM_OF_74HC595);
     862:	61 e0       	ldi	r22, 0x01	; 1
     864:	ce 01       	movw	r24, r28
     866:	01 96       	adiw	r24, 0x01	; 1
     868:	0e 94 07 04 	call	0x80e	; 0x80e <shiftOutMultiple>
}
     86c:	0f 90       	pop	r0
     86e:	df 91       	pop	r29
     870:	cf 91       	pop	r28
     872:	08 95       	ret

00000874 <UART_init>:
#include <stddef.h>

#define TIMEOUT_COUNT (TIMEOUT_MS * (F_CPU / 1000 / 64))

void UART_init(void) {
    UBRR0H = (UBRR_VALUE >> 8);
     874:	10 92 c5 00 	sts	0x00C5, r1	; 0x8000c5 <__TEXT_REGION_LENGTH__+0x7f80c5>
    UBRR0L = UBRR_VALUE;
     878:	87 e6       	ldi	r24, 0x67	; 103
     87a:	80 93 c4 00 	sts	0x00C4, r24	; 0x8000c4 <__TEXT_REGION_LENGTH__+0x7f80c4>
    UCSR0B = (1 << TXEN0) | (1 << RXEN0);
     87e:	88 e1       	ldi	r24, 0x18	; 24
     880:	80 93 c1 00 	sts	0x00C1, r24	; 0x8000c1 <__TEXT_REGION_LENGTH__+0x7f80c1>
    UCSR0C = (1 << UCSZ01) | (1 << UCSZ00);
     884:	86 e0       	ldi	r24, 0x06	; 6
     886:	80 93 c2 00 	sts	0x00C2, r24	; 0x8000c2 <__TEXT_REGION_LENGTH__+0x7f80c2>
     88a:	08 95       	ret

0000088c <UART_send>:
}

void UART_send(uint8_t data) {
    while (!(UCSR0A & (1 << UDRE0)));
     88c:	90 91 c0 00 	lds	r25, 0x00C0	; 0x8000c0 <__TEXT_REGION_LENGTH__+0x7f80c0>
     890:	95 ff       	sbrs	r25, 5
     892:	fc cf       	rjmp	.-8      	; 0x88c <UART_send>
    UDR0 = data;
     894:	80 93 c6 00 	sts	0x00C6, r24	; 0x8000c6 <__TEXT_REGION_LENGTH__+0x7f80c6>
     898:	08 95       	ret

0000089a <UART_receive>:
}

// Ôóíęöč˙ ďđč¸ěŕ ń ňŕéěŕóňîě: ĺńëč äŕííűĺ íĺ ďîńňóďŕţň, âîçâđŕůŕĺň 0xFF
uint8_t UART_receive(void) {
    uint16_t timeout = TIMEOUT_COUNT;
     89a:	88 ea       	ldi	r24, 0xA8	; 168
     89c:	91 e6       	ldi	r25, 0x61	; 97
    while (!(UCSR0A & (1 << RXC0))) {
     89e:	02 c0       	rjmp	.+4      	; 0x8a4 <UART_receive+0xa>
        if (--timeout == 0) {
     8a0:	01 97       	sbiw	r24, 0x01	; 1
     8a2:	39 f0       	breq	.+14     	; 0x8b2 <UART_receive+0x18>
}

// Ôóíęöč˙ ďđč¸ěŕ ń ňŕéěŕóňîě: ĺńëč äŕííűĺ íĺ ďîńňóďŕţň, âîçâđŕůŕĺň 0xFF
uint8_t UART_receive(void) {
    uint16_t timeout = TIMEOUT_COUNT;
    while (!(UCSR0A & (1 << RXC0))) {
     8a4:	20 91 c0 00 	lds	r18, 0x00C0	; 0x8000c0 <__TEXT_REGION_LENGTH__+0x7f80c0>
     8a8:	22 23       	and	r18, r18
     8aa:	d4 f7       	brge	.-12     	; 0x8a0 <UART_receive+0x6>
        if (--timeout == 0) {
            return 0xFF;
        }
    }
    return UDR0;
     8ac:	80 91 c6 00 	lds	r24, 0x00C6	; 0x8000c6 <__TEXT_REGION_LENGTH__+0x7f80c6>
     8b0:	08 95       	ret
// Ôóíęöč˙ ďđč¸ěŕ ń ňŕéěŕóňîě: ĺńëč äŕííűĺ íĺ ďîńňóďŕţň, âîçâđŕůŕĺň 0xFF
uint8_t UART_receive(void) {
    uint16_t timeout = TIMEOUT_COUNT;
    while (!(UCSR0A & (1 << RXC0))) {
        if (--timeout == 0) {
            return 0xFF;
     8b2:	8f ef       	ldi	r24, 0xFF	; 255
        }
    }
    return UDR0;
}
     8b4:	08 95       	ret

000008b6 <crc8>:
        UART_send(packet[i]);
    }
}

// Âű÷čńëĺíčĺ CRC-8 äë˙ 3 áŕéň (CMD, TABLE_ID, DATA)
uint8_t crc8(const uint8_t *data, uint8_t len) {
     8b6:	ac 01       	movw	r20, r24
    uint8_t crc = 0xFF;
    for (uint8_t i = 0; i < len; i++) {
     8b8:	30 e0       	ldi	r19, 0x00	; 0
    }
}

// Âű÷čńëĺíčĺ CRC-8 äë˙ 3 áŕéň (CMD, TABLE_ID, DATA)
uint8_t crc8(const uint8_t *data, uint8_t len) {
    uint8_t crc = 0xFF;
     8ba:	8f ef       	ldi	r24, 0xFF	; 255
    for (uint8_t i = 0; i < len; i++) {
     8bc:	14 c0       	rjmp	.+40     	; 0x8e6 <crc8+0x30>
        crc ^= data[i];
     8be:	fa 01       	movw	r30, r20
     8c0:	e3 0f       	add	r30, r19
     8c2:	f1 1d       	adc	r31, r1
     8c4:	90 81       	ld	r25, Z
     8c6:	89 27       	eor	r24, r25
        for (uint8_t j = 0; j < 8; j++) {
     8c8:	20 e0       	ldi	r18, 0x00	; 0
     8ca:	0a c0       	rjmp	.+20     	; 0x8e0 <crc8+0x2a>
            if (crc & 0x80)
     8cc:	88 23       	and	r24, r24
     8ce:	34 f4       	brge	.+12     	; 0x8dc <crc8+0x26>
                crc = (crc << 1) ^ 0x07;
     8d0:	90 e0       	ldi	r25, 0x00	; 0
     8d2:	88 0f       	add	r24, r24
     8d4:	99 1f       	adc	r25, r25
     8d6:	97 e0       	ldi	r25, 0x07	; 7
     8d8:	89 27       	eor	r24, r25
     8da:	01 c0       	rjmp	.+2      	; 0x8de <crc8+0x28>
            else
                crc <<= 1;
     8dc:	88 0f       	add	r24, r24
// Âű÷čńëĺíčĺ CRC-8 äë˙ 3 áŕéň (CMD, TABLE_ID, DATA)
uint8_t crc8(const uint8_t *data, uint8_t len) {
    uint8_t crc = 0xFF;
    for (uint8_t i = 0; i < len; i++) {
        crc ^= data[i];
        for (uint8_t j = 0; j < 8; j++) {
     8de:	2f 5f       	subi	r18, 0xFF	; 255
     8e0:	28 30       	cpi	r18, 0x08	; 8
     8e2:	a0 f3       	brcs	.-24     	; 0x8cc <crc8+0x16>
}

// Âű÷čńëĺíčĺ CRC-8 äë˙ 3 áŕéň (CMD, TABLE_ID, DATA)
uint8_t crc8(const uint8_t *data, uint8_t len) {
    uint8_t crc = 0xFF;
    for (uint8_t i = 0; i < len; i++) {
     8e4:	3f 5f       	subi	r19, 0xFF	; 255
     8e6:	36 17       	cp	r19, r22
     8e8:	50 f3       	brcs	.-44     	; 0x8be <crc8+0x8>
            else
                crc <<= 1;
        }
    }
    return crc;
}
     8ea:	08 95       	ret

000008ec <send_command>:
    }
    return UDR0;
}

// Îňďđŕâęŕ ďŕęĺňŕ ďî ďđîňîęîëó: STX, CMD, TABLE_ID, DATA, CRC, ETX
void send_command(uint8_t cmd, uint8_t table_id, uint8_t data) {
     8ec:	1f 93       	push	r17
     8ee:	cf 93       	push	r28
     8f0:	df 93       	push	r29
     8f2:	00 d0       	rcall	.+0      	; 0x8f4 <send_command+0x8>
     8f4:	00 d0       	rcall	.+0      	; 0x8f6 <send_command+0xa>
     8f6:	00 d0       	rcall	.+0      	; 0x8f8 <send_command+0xc>
     8f8:	cd b7       	in	r28, 0x3d	; 61
     8fa:	de b7       	in	r29, 0x3e	; 62
    uint8_t packet[PACKET_SIZE];
    packet[0] = STX;
     8fc:	92 e0       	ldi	r25, 0x02	; 2
     8fe:	99 83       	std	Y+1, r25	; 0x01
    packet[1] = cmd;
     900:	8a 83       	std	Y+2, r24	; 0x02
    packet[2] = table_id;
     902:	6b 83       	std	Y+3, r22	; 0x03
    packet[3] = data;
     904:	4c 83       	std	Y+4, r20	; 0x04
    packet[4] = crc8(&packet[1], 3);
     906:	63 e0       	ldi	r22, 0x03	; 3
     908:	ce 01       	movw	r24, r28
     90a:	02 96       	adiw	r24, 0x02	; 2
     90c:	0e 94 5b 04 	call	0x8b6	; 0x8b6 <crc8>
     910:	8d 83       	std	Y+5, r24	; 0x05
    packet[5] = ETX;
     912:	83 e0       	ldi	r24, 0x03	; 3
     914:	8e 83       	std	Y+6, r24	; 0x06
    
    for (uint8_t i = 0; i < PACKET_SIZE; i++) {
     916:	10 e0       	ldi	r17, 0x00	; 0
     918:	0a c0       	rjmp	.+20     	; 0x92e <__stack+0x2f>
        UART_send(packet[i]);
     91a:	e1 e0       	ldi	r30, 0x01	; 1
     91c:	f0 e0       	ldi	r31, 0x00	; 0
     91e:	ec 0f       	add	r30, r28
     920:	fd 1f       	adc	r31, r29
     922:	e1 0f       	add	r30, r17
     924:	f1 1d       	adc	r31, r1
     926:	80 81       	ld	r24, Z
     928:	0e 94 46 04 	call	0x88c	; 0x88c <UART_send>
    packet[2] = table_id;
    packet[3] = data;
    packet[4] = crc8(&packet[1], 3);
    packet[5] = ETX;
    
    for (uint8_t i = 0; i < PACKET_SIZE; i++) {
     92c:	1f 5f       	subi	r17, 0xFF	; 255
     92e:	16 30       	cpi	r17, 0x06	; 6
     930:	a0 f3       	brcs	.-24     	; 0x91a <__stack+0x1b>
        UART_send(packet[i]);
    }
}
     932:	26 96       	adiw	r28, 0x06	; 6
     934:	0f b6       	in	r0, 0x3f	; 63
     936:	f8 94       	cli
     938:	de bf       	out	0x3e, r29	; 62
     93a:	0f be       	out	0x3f, r0	; 63
     93c:	cd bf       	out	0x3d, r28	; 61
     93e:	df 91       	pop	r29
     940:	cf 91       	pop	r28
     942:	1f 91       	pop	r17
     944:	08 95       	ret

00000946 <UART_receive_packet>:
 *  - ďĺđâűé áŕéň äîëćĺí áűňü STX,
 *  - ďîńëĺäíčé áŕéň äîëćĺí áűňü ETX,
 *  - CRC (ď˙ňűé áŕéň) äîëćĺí ńîâďŕäŕňü ń âű÷čńëĺííűě ďî CMD, TABLE_ID č DATA.
 * Ĺńëč ďŕęĺň ęîđđĺęňĺí, ôóíęöč˙ âîçâđŕůŕĺň 1, číŕ÷ĺ – 0.
 */
uint8_t UART_receive_packet(uint8_t *packet_buffer) {
     946:	0f 93       	push	r16
     948:	1f 93       	push	r17
     94a:	cf 93       	push	r28
     94c:	8c 01       	movw	r16, r24
    uint8_t byte = UART_receive();
     94e:	0e 94 4d 04 	call	0x89a	; 0x89a <UART_receive>
    if (byte != STX) {
     952:	82 30       	cpi	r24, 0x02	; 2
     954:	e1 f4       	brne	.+56     	; 0x98e <UART_receive_packet+0x48>
        return 0; // Íĺ ďîëó÷ĺí STX
    }
    packet_buffer[0] = byte;
     956:	f8 01       	movw	r30, r16
     958:	80 83       	st	Z, r24
    for (uint8_t i = 1; i < PACKET_SIZE; i++) {
     95a:	c1 e0       	ldi	r28, 0x01	; 1
     95c:	07 c0       	rjmp	.+14     	; 0x96c <UART_receive_packet+0x26>
        byte = UART_receive();
     95e:	0e 94 4d 04 	call	0x89a	; 0x89a <UART_receive>
        packet_buffer[i] = byte;
     962:	f8 01       	movw	r30, r16
     964:	ec 0f       	add	r30, r28
     966:	f1 1d       	adc	r31, r1
     968:	80 83       	st	Z, r24
    uint8_t byte = UART_receive();
    if (byte != STX) {
        return 0; // Íĺ ďîëó÷ĺí STX
    }
    packet_buffer[0] = byte;
    for (uint8_t i = 1; i < PACKET_SIZE; i++) {
     96a:	cf 5f       	subi	r28, 0xFF	; 255
     96c:	c6 30       	cpi	r28, 0x06	; 6
     96e:	b8 f3       	brcs	.-18     	; 0x95e <UART_receive_packet+0x18>
        byte = UART_receive();
        packet_buffer[i] = byte;
    }
    // Ďđîâĺđęŕ ETX
    if (packet_buffer[5] != ETX) {
     970:	f8 01       	movw	r30, r16
     972:	85 81       	ldd	r24, Z+5	; 0x05
     974:	83 30       	cpi	r24, 0x03	; 3
     976:	69 f4       	brne	.+26     	; 0x992 <UART_receive_packet+0x4c>
        return 0;
    }
    // Ďđîâĺđęŕ CRC
    if (crc8(&packet_buffer[1], 3) != packet_buffer[4]) {
     978:	63 e0       	ldi	r22, 0x03	; 3
     97a:	c8 01       	movw	r24, r16
     97c:	01 96       	adiw	r24, 0x01	; 1
     97e:	0e 94 5b 04 	call	0x8b6	; 0x8b6 <crc8>
     982:	f8 01       	movw	r30, r16
     984:	94 81       	ldd	r25, Z+4	; 0x04
     986:	89 17       	cp	r24, r25
     988:	31 f0       	breq	.+12     	; 0x996 <UART_receive_packet+0x50>
        return 0;
     98a:	80 e0       	ldi	r24, 0x00	; 0
     98c:	05 c0       	rjmp	.+10     	; 0x998 <UART_receive_packet+0x52>
 * Ĺńëč ďŕęĺň ęîđđĺęňĺí, ôóíęöč˙ âîçâđŕůŕĺň 1, číŕ÷ĺ – 0.
 */
uint8_t UART_receive_packet(uint8_t *packet_buffer) {
    uint8_t byte = UART_receive();
    if (byte != STX) {
        return 0; // Íĺ ďîëó÷ĺí STX
     98e:	80 e0       	ldi	r24, 0x00	; 0
     990:	03 c0       	rjmp	.+6      	; 0x998 <UART_receive_packet+0x52>
        byte = UART_receive();
        packet_buffer[i] = byte;
    }
    // Ďđîâĺđęŕ ETX
    if (packet_buffer[5] != ETX) {
        return 0;
     992:	80 e0       	ldi	r24, 0x00	; 0
     994:	01 c0       	rjmp	.+2      	; 0x998 <UART_receive_packet+0x52>
    }
    // Ďđîâĺđęŕ CRC
    if (crc8(&packet_buffer[1], 3) != packet_buffer[4]) {
        return 0;
    }
    return 1;
     996:	81 e0       	ldi	r24, 0x01	; 1
}
     998:	cf 91       	pop	r28
     99a:	1f 91       	pop	r17
     99c:	0f 91       	pop	r16
     99e:	08 95       	ret

000009a0 <send_command_with_ack>:
 *  - CMD đŕâíűé ACK_CMD (0x40),
 *  - ďîëĺ TABLE_ID đŕâíîĺ čńőîäíîé ęîěŕíäĺ, äë˙ ęîňîđîé ďîäňâĺđćäĺíčĺ.
 * Ôóíęöč˙ ďîâňîđ˙ĺň îňďđŕâęó äî MAX_RETRIES đŕç č âîçâđŕůŕĺň 1, ĺńëč ACK ďîëó÷ĺí,
 * číŕ÷ĺ – 0.
 */
uint8_t send_command_with_ack(uint8_t cmd, uint8_t table_id, uint8_t data) {
     9a0:	ef 92       	push	r14
     9a2:	ff 92       	push	r15
     9a4:	0f 93       	push	r16
     9a6:	1f 93       	push	r17
     9a8:	cf 93       	push	r28
     9aa:	df 93       	push	r29
     9ac:	00 d0       	rcall	.+0      	; 0x9ae <send_command_with_ack+0xe>
     9ae:	00 d0       	rcall	.+0      	; 0x9b0 <send_command_with_ack+0x10>
     9b0:	00 d0       	rcall	.+0      	; 0x9b2 <send_command_with_ack+0x12>
     9b2:	cd b7       	in	r28, 0x3d	; 61
     9b4:	de b7       	in	r29, 0x3e	; 62
     9b6:	08 2f       	mov	r16, r24
     9b8:	e6 2e       	mov	r14, r22
     9ba:	f4 2e       	mov	r15, r20
    uint8_t retries = 0;
     9bc:	10 e0       	ldi	r17, 0x00	; 0
    uint8_t ack_received = 0;
    uint8_t response[PACKET_SIZE];
    
    while (retries < MAX_RETRIES && !ack_received) {
     9be:	12 c0       	rjmp	.+36     	; 0x9e4 <send_command_with_ack+0x44>
        // Îňďđŕâë˙ĺě ęîěŕíäó
        send_command(cmd, table_id, data);
     9c0:	4f 2d       	mov	r20, r15
     9c2:	6e 2d       	mov	r22, r14
     9c4:	80 2f       	mov	r24, r16
     9c6:	0e 94 76 04 	call	0x8ec	; 0x8ec <send_command>
        
        // Îćčäŕĺě îňâĺňŕ: ďűňŕĺěń˙ ďîëó÷čňü ďîëíűé ďŕęĺň
        if (UART_receive_packet(response)) {
     9ca:	ce 01       	movw	r24, r28
     9cc:	01 96       	adiw	r24, 0x01	; 1
     9ce:	0e 94 a3 04 	call	0x946	; 0x946 <UART_receive_packet>
     9d2:	88 23       	and	r24, r24
     9d4:	31 f0       	breq	.+12     	; 0x9e2 <send_command_with_ack+0x42>
            // Ĺńëč ďîëó÷ĺí ďŕęĺň ń ACK č ďîëĺ TABLE_ID ńîîňâĺňńňâóĺň îňďđŕâëĺííîé ęîěŕíäĺ
            if (response[1] == ACK_CMD && response[2] == cmd) {
     9d6:	8a 81       	ldd	r24, Y+2	; 0x02
     9d8:	80 34       	cpi	r24, 0x40	; 64
     9da:	19 f4       	brne	.+6      	; 0x9e2 <send_command_with_ack+0x42>
     9dc:	8b 81       	ldd	r24, Y+3	; 0x03
     9de:	08 17       	cp	r16, r24
     9e0:	29 f0       	breq	.+10     	; 0x9ec <send_command_with_ack+0x4c>
                ack_received = 1;
                break;
            }
        }
        retries++;
     9e2:	1f 5f       	subi	r17, 0xFF	; 255
uint8_t send_command_with_ack(uint8_t cmd, uint8_t table_id, uint8_t data) {
    uint8_t retries = 0;
    uint8_t ack_received = 0;
    uint8_t response[PACKET_SIZE];
    
    while (retries < MAX_RETRIES && !ack_received) {
     9e4:	13 30       	cpi	r17, 0x03	; 3
     9e6:	60 f3       	brcs	.-40     	; 0x9c0 <send_command_with_ack+0x20>
 * Ôóíęöč˙ ďîâňîđ˙ĺň îňďđŕâęó äî MAX_RETRIES đŕç č âîçâđŕůŕĺň 1, ĺńëč ACK ďîëó÷ĺí,
 * číŕ÷ĺ – 0.
 */
uint8_t send_command_with_ack(uint8_t cmd, uint8_t table_id, uint8_t data) {
    uint8_t retries = 0;
    uint8_t ack_received = 0;
     9e8:	80 e0       	ldi	r24, 0x00	; 0
     9ea:	01 c0       	rjmp	.+2      	; 0x9ee <send_command_with_ack+0x4e>
        
        // Îćčäŕĺě îňâĺňŕ: ďűňŕĺěń˙ ďîëó÷čňü ďîëíűé ďŕęĺň
        if (UART_receive_packet(response)) {
            // Ĺńëč ďîëó÷ĺí ďŕęĺň ń ACK č ďîëĺ TABLE_ID ńîîňâĺňńňâóĺň îňďđŕâëĺííîé ęîěŕíäĺ
            if (response[1] == ACK_CMD && response[2] == cmd) {
                ack_received = 1;
     9ec:	81 e0       	ldi	r24, 0x01	; 1
        }
        retries++;
    }
    
    return ack_received;
}
     9ee:	26 96       	adiw	r28, 0x06	; 6
     9f0:	0f b6       	in	r0, 0x3f	; 63
     9f2:	f8 94       	cli
     9f4:	de bf       	out	0x3e, r29	; 62
     9f6:	0f be       	out	0x3f, r0	; 63
     9f8:	cd bf       	out	0x3d, r28	; 61
     9fa:	df 91       	pop	r29
     9fc:	cf 91       	pop	r28
     9fe:	1f 91       	pop	r17
     a00:	0f 91       	pop	r16
     a02:	ff 90       	pop	r15
     a04:	ef 90       	pop	r14
     a06:	08 95       	ret

00000a08 <__divmodhi4>:
     a08:	97 fb       	bst	r25, 7
     a0a:	07 2e       	mov	r0, r23
     a0c:	16 f4       	brtc	.+4      	; 0xa12 <__divmodhi4+0xa>
     a0e:	00 94       	com	r0
     a10:	07 d0       	rcall	.+14     	; 0xa20 <__divmodhi4_neg1>
     a12:	77 fd       	sbrc	r23, 7
     a14:	09 d0       	rcall	.+18     	; 0xa28 <__divmodhi4_neg2>
     a16:	0e 94 18 05 	call	0xa30	; 0xa30 <__udivmodhi4>
     a1a:	07 fc       	sbrc	r0, 7
     a1c:	05 d0       	rcall	.+10     	; 0xa28 <__divmodhi4_neg2>
     a1e:	3e f4       	brtc	.+14     	; 0xa2e <__divmodhi4_exit>

00000a20 <__divmodhi4_neg1>:
     a20:	90 95       	com	r25
     a22:	81 95       	neg	r24
     a24:	9f 4f       	sbci	r25, 0xFF	; 255
     a26:	08 95       	ret

00000a28 <__divmodhi4_neg2>:
     a28:	70 95       	com	r23
     a2a:	61 95       	neg	r22
     a2c:	7f 4f       	sbci	r23, 0xFF	; 255

00000a2e <__divmodhi4_exit>:
     a2e:	08 95       	ret

00000a30 <__udivmodhi4>:
     a30:	aa 1b       	sub	r26, r26
     a32:	bb 1b       	sub	r27, r27
     a34:	51 e1       	ldi	r21, 0x11	; 17
     a36:	07 c0       	rjmp	.+14     	; 0xa46 <__udivmodhi4_ep>

00000a38 <__udivmodhi4_loop>:
     a38:	aa 1f       	adc	r26, r26
     a3a:	bb 1f       	adc	r27, r27
     a3c:	a6 17       	cp	r26, r22
     a3e:	b7 07       	cpc	r27, r23
     a40:	10 f0       	brcs	.+4      	; 0xa46 <__udivmodhi4_ep>
     a42:	a6 1b       	sub	r26, r22
     a44:	b7 0b       	sbc	r27, r23

00000a46 <__udivmodhi4_ep>:
     a46:	88 1f       	adc	r24, r24
     a48:	99 1f       	adc	r25, r25
     a4a:	5a 95       	dec	r21
     a4c:	a9 f7       	brne	.-22     	; 0xa38 <__udivmodhi4_loop>
     a4e:	80 95       	com	r24
     a50:	90 95       	com	r25
     a52:	bc 01       	movw	r22, r24
     a54:	cd 01       	movw	r24, r26
     a56:	08 95       	ret

00000a58 <memset>:
     a58:	dc 01       	movw	r26, r24
     a5a:	01 c0       	rjmp	.+2      	; 0xa5e <memset+0x6>
     a5c:	6d 93       	st	X+, r22
     a5e:	41 50       	subi	r20, 0x01	; 1
     a60:	50 40       	sbci	r21, 0x00	; 0
     a62:	e0 f7       	brcc	.-8      	; 0xa5c <memset+0x4>
     a64:	08 95       	ret

00000a66 <snprintf>:
     a66:	ae e0       	ldi	r26, 0x0E	; 14
     a68:	b0 e0       	ldi	r27, 0x00	; 0
     a6a:	e9 e3       	ldi	r30, 0x39	; 57
     a6c:	f5 e0       	ldi	r31, 0x05	; 5
     a6e:	0c 94 02 08 	jmp	0x1004	; 0x1004 <__prologue_saves__+0x1c>
     a72:	0d 89       	ldd	r16, Y+21	; 0x15
     a74:	1e 89       	ldd	r17, Y+22	; 0x16
     a76:	8f 89       	ldd	r24, Y+23	; 0x17
     a78:	98 8d       	ldd	r25, Y+24	; 0x18
     a7a:	26 e0       	ldi	r18, 0x06	; 6
     a7c:	2c 83       	std	Y+4, r18	; 0x04
     a7e:	1a 83       	std	Y+2, r17	; 0x02
     a80:	09 83       	std	Y+1, r16	; 0x01
     a82:	97 ff       	sbrs	r25, 7
     a84:	02 c0       	rjmp	.+4      	; 0xa8a <snprintf+0x24>
     a86:	80 e0       	ldi	r24, 0x00	; 0
     a88:	90 e8       	ldi	r25, 0x80	; 128
     a8a:	01 97       	sbiw	r24, 0x01	; 1
     a8c:	9e 83       	std	Y+6, r25	; 0x06
     a8e:	8d 83       	std	Y+5, r24	; 0x05
     a90:	ae 01       	movw	r20, r28
     a92:	45 5e       	subi	r20, 0xE5	; 229
     a94:	5f 4f       	sbci	r21, 0xFF	; 255
     a96:	69 8d       	ldd	r22, Y+25	; 0x19
     a98:	7a 8d       	ldd	r23, Y+26	; 0x1a
     a9a:	ce 01       	movw	r24, r28
     a9c:	01 96       	adiw	r24, 0x01	; 1
     a9e:	0e 94 63 05 	call	0xac6	; 0xac6 <vfprintf>
     aa2:	4d 81       	ldd	r20, Y+5	; 0x05
     aa4:	5e 81       	ldd	r21, Y+6	; 0x06
     aa6:	57 fd       	sbrc	r21, 7
     aa8:	0a c0       	rjmp	.+20     	; 0xabe <snprintf+0x58>
     aaa:	2f 81       	ldd	r18, Y+7	; 0x07
     aac:	38 85       	ldd	r19, Y+8	; 0x08
     aae:	42 17       	cp	r20, r18
     ab0:	53 07       	cpc	r21, r19
     ab2:	0c f4       	brge	.+2      	; 0xab6 <snprintf+0x50>
     ab4:	9a 01       	movw	r18, r20
     ab6:	f8 01       	movw	r30, r16
     ab8:	e2 0f       	add	r30, r18
     aba:	f3 1f       	adc	r31, r19
     abc:	10 82       	st	Z, r1
     abe:	2e 96       	adiw	r28, 0x0e	; 14
     ac0:	e4 e0       	ldi	r30, 0x04	; 4
     ac2:	0c 94 1e 08 	jmp	0x103c	; 0x103c <__epilogue_restores__+0x1c>

00000ac6 <vfprintf>:
     ac6:	ab e0       	ldi	r26, 0x0B	; 11
     ac8:	b0 e0       	ldi	r27, 0x00	; 0
     aca:	e9 e6       	ldi	r30, 0x69	; 105
     acc:	f5 e0       	ldi	r31, 0x05	; 5
     ace:	0c 94 f4 07 	jmp	0xfe8	; 0xfe8 <__prologue_saves__>
     ad2:	6c 01       	movw	r12, r24
     ad4:	7b 01       	movw	r14, r22
     ad6:	8a 01       	movw	r16, r20
     ad8:	fc 01       	movw	r30, r24
     ada:	17 82       	std	Z+7, r1	; 0x07
     adc:	16 82       	std	Z+6, r1	; 0x06
     ade:	83 81       	ldd	r24, Z+3	; 0x03
     ae0:	81 ff       	sbrs	r24, 1
     ae2:	cc c1       	rjmp	.+920    	; 0xe7c <vfprintf+0x3b6>
     ae4:	ce 01       	movw	r24, r28
     ae6:	01 96       	adiw	r24, 0x01	; 1
     ae8:	3c 01       	movw	r6, r24
     aea:	f6 01       	movw	r30, r12
     aec:	93 81       	ldd	r25, Z+3	; 0x03
     aee:	f7 01       	movw	r30, r14
     af0:	93 fd       	sbrc	r25, 3
     af2:	85 91       	lpm	r24, Z+
     af4:	93 ff       	sbrs	r25, 3
     af6:	81 91       	ld	r24, Z+
     af8:	7f 01       	movw	r14, r30
     afa:	88 23       	and	r24, r24
     afc:	09 f4       	brne	.+2      	; 0xb00 <vfprintf+0x3a>
     afe:	ba c1       	rjmp	.+884    	; 0xe74 <vfprintf+0x3ae>
     b00:	85 32       	cpi	r24, 0x25	; 37
     b02:	39 f4       	brne	.+14     	; 0xb12 <vfprintf+0x4c>
     b04:	93 fd       	sbrc	r25, 3
     b06:	85 91       	lpm	r24, Z+
     b08:	93 ff       	sbrs	r25, 3
     b0a:	81 91       	ld	r24, Z+
     b0c:	7f 01       	movw	r14, r30
     b0e:	85 32       	cpi	r24, 0x25	; 37
     b10:	29 f4       	brne	.+10     	; 0xb1c <vfprintf+0x56>
     b12:	b6 01       	movw	r22, r12
     b14:	90 e0       	ldi	r25, 0x00	; 0
     b16:	0e 94 5a 07 	call	0xeb4	; 0xeb4 <fputc>
     b1a:	e7 cf       	rjmp	.-50     	; 0xaea <vfprintf+0x24>
     b1c:	91 2c       	mov	r9, r1
     b1e:	21 2c       	mov	r2, r1
     b20:	31 2c       	mov	r3, r1
     b22:	ff e1       	ldi	r31, 0x1F	; 31
     b24:	f3 15       	cp	r31, r3
     b26:	d8 f0       	brcs	.+54     	; 0xb5e <vfprintf+0x98>
     b28:	8b 32       	cpi	r24, 0x2B	; 43
     b2a:	79 f0       	breq	.+30     	; 0xb4a <vfprintf+0x84>
     b2c:	38 f4       	brcc	.+14     	; 0xb3c <vfprintf+0x76>
     b2e:	80 32       	cpi	r24, 0x20	; 32
     b30:	79 f0       	breq	.+30     	; 0xb50 <vfprintf+0x8a>
     b32:	83 32       	cpi	r24, 0x23	; 35
     b34:	a1 f4       	brne	.+40     	; 0xb5e <vfprintf+0x98>
     b36:	23 2d       	mov	r18, r3
     b38:	20 61       	ori	r18, 0x10	; 16
     b3a:	1d c0       	rjmp	.+58     	; 0xb76 <vfprintf+0xb0>
     b3c:	8d 32       	cpi	r24, 0x2D	; 45
     b3e:	61 f0       	breq	.+24     	; 0xb58 <vfprintf+0x92>
     b40:	80 33       	cpi	r24, 0x30	; 48
     b42:	69 f4       	brne	.+26     	; 0xb5e <vfprintf+0x98>
     b44:	23 2d       	mov	r18, r3
     b46:	21 60       	ori	r18, 0x01	; 1
     b48:	16 c0       	rjmp	.+44     	; 0xb76 <vfprintf+0xb0>
     b4a:	83 2d       	mov	r24, r3
     b4c:	82 60       	ori	r24, 0x02	; 2
     b4e:	38 2e       	mov	r3, r24
     b50:	e3 2d       	mov	r30, r3
     b52:	e4 60       	ori	r30, 0x04	; 4
     b54:	3e 2e       	mov	r3, r30
     b56:	2a c0       	rjmp	.+84     	; 0xbac <vfprintf+0xe6>
     b58:	f3 2d       	mov	r31, r3
     b5a:	f8 60       	ori	r31, 0x08	; 8
     b5c:	1d c0       	rjmp	.+58     	; 0xb98 <vfprintf+0xd2>
     b5e:	37 fc       	sbrc	r3, 7
     b60:	2d c0       	rjmp	.+90     	; 0xbbc <vfprintf+0xf6>
     b62:	20 ed       	ldi	r18, 0xD0	; 208
     b64:	28 0f       	add	r18, r24
     b66:	2a 30       	cpi	r18, 0x0A	; 10
     b68:	40 f0       	brcs	.+16     	; 0xb7a <vfprintf+0xb4>
     b6a:	8e 32       	cpi	r24, 0x2E	; 46
     b6c:	b9 f4       	brne	.+46     	; 0xb9c <vfprintf+0xd6>
     b6e:	36 fc       	sbrc	r3, 6
     b70:	81 c1       	rjmp	.+770    	; 0xe74 <vfprintf+0x3ae>
     b72:	23 2d       	mov	r18, r3
     b74:	20 64       	ori	r18, 0x40	; 64
     b76:	32 2e       	mov	r3, r18
     b78:	19 c0       	rjmp	.+50     	; 0xbac <vfprintf+0xe6>
     b7a:	36 fe       	sbrs	r3, 6
     b7c:	06 c0       	rjmp	.+12     	; 0xb8a <vfprintf+0xc4>
     b7e:	8a e0       	ldi	r24, 0x0A	; 10
     b80:	98 9e       	mul	r9, r24
     b82:	20 0d       	add	r18, r0
     b84:	11 24       	eor	r1, r1
     b86:	92 2e       	mov	r9, r18
     b88:	11 c0       	rjmp	.+34     	; 0xbac <vfprintf+0xe6>
     b8a:	ea e0       	ldi	r30, 0x0A	; 10
     b8c:	2e 9e       	mul	r2, r30
     b8e:	20 0d       	add	r18, r0
     b90:	11 24       	eor	r1, r1
     b92:	22 2e       	mov	r2, r18
     b94:	f3 2d       	mov	r31, r3
     b96:	f0 62       	ori	r31, 0x20	; 32
     b98:	3f 2e       	mov	r3, r31
     b9a:	08 c0       	rjmp	.+16     	; 0xbac <vfprintf+0xe6>
     b9c:	8c 36       	cpi	r24, 0x6C	; 108
     b9e:	21 f4       	brne	.+8      	; 0xba8 <vfprintf+0xe2>
     ba0:	83 2d       	mov	r24, r3
     ba2:	80 68       	ori	r24, 0x80	; 128
     ba4:	38 2e       	mov	r3, r24
     ba6:	02 c0       	rjmp	.+4      	; 0xbac <vfprintf+0xe6>
     ba8:	88 36       	cpi	r24, 0x68	; 104
     baa:	41 f4       	brne	.+16     	; 0xbbc <vfprintf+0xf6>
     bac:	f7 01       	movw	r30, r14
     bae:	93 fd       	sbrc	r25, 3
     bb0:	85 91       	lpm	r24, Z+
     bb2:	93 ff       	sbrs	r25, 3
     bb4:	81 91       	ld	r24, Z+
     bb6:	7f 01       	movw	r14, r30
     bb8:	81 11       	cpse	r24, r1
     bba:	b3 cf       	rjmp	.-154    	; 0xb22 <vfprintf+0x5c>
     bbc:	98 2f       	mov	r25, r24
     bbe:	9f 7d       	andi	r25, 0xDF	; 223
     bc0:	95 54       	subi	r25, 0x45	; 69
     bc2:	93 30       	cpi	r25, 0x03	; 3
     bc4:	28 f4       	brcc	.+10     	; 0xbd0 <vfprintf+0x10a>
     bc6:	0c 5f       	subi	r16, 0xFC	; 252
     bc8:	1f 4f       	sbci	r17, 0xFF	; 255
     bca:	9f e3       	ldi	r25, 0x3F	; 63
     bcc:	99 83       	std	Y+1, r25	; 0x01
     bce:	0d c0       	rjmp	.+26     	; 0xbea <vfprintf+0x124>
     bd0:	83 36       	cpi	r24, 0x63	; 99
     bd2:	31 f0       	breq	.+12     	; 0xbe0 <vfprintf+0x11a>
     bd4:	83 37       	cpi	r24, 0x73	; 115
     bd6:	71 f0       	breq	.+28     	; 0xbf4 <vfprintf+0x12e>
     bd8:	83 35       	cpi	r24, 0x53	; 83
     bda:	09 f0       	breq	.+2      	; 0xbde <vfprintf+0x118>
     bdc:	59 c0       	rjmp	.+178    	; 0xc90 <vfprintf+0x1ca>
     bde:	21 c0       	rjmp	.+66     	; 0xc22 <vfprintf+0x15c>
     be0:	f8 01       	movw	r30, r16
     be2:	80 81       	ld	r24, Z
     be4:	89 83       	std	Y+1, r24	; 0x01
     be6:	0e 5f       	subi	r16, 0xFE	; 254
     be8:	1f 4f       	sbci	r17, 0xFF	; 255
     bea:	88 24       	eor	r8, r8
     bec:	83 94       	inc	r8
     bee:	91 2c       	mov	r9, r1
     bf0:	53 01       	movw	r10, r6
     bf2:	13 c0       	rjmp	.+38     	; 0xc1a <vfprintf+0x154>
     bf4:	28 01       	movw	r4, r16
     bf6:	f2 e0       	ldi	r31, 0x02	; 2
     bf8:	4f 0e       	add	r4, r31
     bfa:	51 1c       	adc	r5, r1
     bfc:	f8 01       	movw	r30, r16
     bfe:	a0 80       	ld	r10, Z
     c00:	b1 80       	ldd	r11, Z+1	; 0x01
     c02:	36 fe       	sbrs	r3, 6
     c04:	03 c0       	rjmp	.+6      	; 0xc0c <vfprintf+0x146>
     c06:	69 2d       	mov	r22, r9
     c08:	70 e0       	ldi	r23, 0x00	; 0
     c0a:	02 c0       	rjmp	.+4      	; 0xc10 <vfprintf+0x14a>
     c0c:	6f ef       	ldi	r22, 0xFF	; 255
     c0e:	7f ef       	ldi	r23, 0xFF	; 255
     c10:	c5 01       	movw	r24, r10
     c12:	0e 94 4f 07 	call	0xe9e	; 0xe9e <strnlen>
     c16:	4c 01       	movw	r8, r24
     c18:	82 01       	movw	r16, r4
     c1a:	f3 2d       	mov	r31, r3
     c1c:	ff 77       	andi	r31, 0x7F	; 127
     c1e:	3f 2e       	mov	r3, r31
     c20:	16 c0       	rjmp	.+44     	; 0xc4e <vfprintf+0x188>
     c22:	28 01       	movw	r4, r16
     c24:	22 e0       	ldi	r18, 0x02	; 2
     c26:	42 0e       	add	r4, r18
     c28:	51 1c       	adc	r5, r1
     c2a:	f8 01       	movw	r30, r16
     c2c:	a0 80       	ld	r10, Z
     c2e:	b1 80       	ldd	r11, Z+1	; 0x01
     c30:	36 fe       	sbrs	r3, 6
     c32:	03 c0       	rjmp	.+6      	; 0xc3a <vfprintf+0x174>
     c34:	69 2d       	mov	r22, r9
     c36:	70 e0       	ldi	r23, 0x00	; 0
     c38:	02 c0       	rjmp	.+4      	; 0xc3e <vfprintf+0x178>
     c3a:	6f ef       	ldi	r22, 0xFF	; 255
     c3c:	7f ef       	ldi	r23, 0xFF	; 255
     c3e:	c5 01       	movw	r24, r10
     c40:	0e 94 44 07 	call	0xe88	; 0xe88 <strnlen_P>
     c44:	4c 01       	movw	r8, r24
     c46:	f3 2d       	mov	r31, r3
     c48:	f0 68       	ori	r31, 0x80	; 128
     c4a:	3f 2e       	mov	r3, r31
     c4c:	82 01       	movw	r16, r4
     c4e:	33 fc       	sbrc	r3, 3
     c50:	1b c0       	rjmp	.+54     	; 0xc88 <vfprintf+0x1c2>
     c52:	82 2d       	mov	r24, r2
     c54:	90 e0       	ldi	r25, 0x00	; 0
     c56:	88 16       	cp	r8, r24
     c58:	99 06       	cpc	r9, r25
     c5a:	b0 f4       	brcc	.+44     	; 0xc88 <vfprintf+0x1c2>
     c5c:	b6 01       	movw	r22, r12
     c5e:	80 e2       	ldi	r24, 0x20	; 32
     c60:	90 e0       	ldi	r25, 0x00	; 0
     c62:	0e 94 5a 07 	call	0xeb4	; 0xeb4 <fputc>
     c66:	2a 94       	dec	r2
     c68:	f4 cf       	rjmp	.-24     	; 0xc52 <vfprintf+0x18c>
     c6a:	f5 01       	movw	r30, r10
     c6c:	37 fc       	sbrc	r3, 7
     c6e:	85 91       	lpm	r24, Z+
     c70:	37 fe       	sbrs	r3, 7
     c72:	81 91       	ld	r24, Z+
     c74:	5f 01       	movw	r10, r30
     c76:	b6 01       	movw	r22, r12
     c78:	90 e0       	ldi	r25, 0x00	; 0
     c7a:	0e 94 5a 07 	call	0xeb4	; 0xeb4 <fputc>
     c7e:	21 10       	cpse	r2, r1
     c80:	2a 94       	dec	r2
     c82:	21 e0       	ldi	r18, 0x01	; 1
     c84:	82 1a       	sub	r8, r18
     c86:	91 08       	sbc	r9, r1
     c88:	81 14       	cp	r8, r1
     c8a:	91 04       	cpc	r9, r1
     c8c:	71 f7       	brne	.-36     	; 0xc6a <vfprintf+0x1a4>
     c8e:	e8 c0       	rjmp	.+464    	; 0xe60 <vfprintf+0x39a>
     c90:	84 36       	cpi	r24, 0x64	; 100
     c92:	11 f0       	breq	.+4      	; 0xc98 <vfprintf+0x1d2>
     c94:	89 36       	cpi	r24, 0x69	; 105
     c96:	41 f5       	brne	.+80     	; 0xce8 <vfprintf+0x222>
     c98:	f8 01       	movw	r30, r16
     c9a:	37 fe       	sbrs	r3, 7
     c9c:	07 c0       	rjmp	.+14     	; 0xcac <vfprintf+0x1e6>
     c9e:	60 81       	ld	r22, Z
     ca0:	71 81       	ldd	r23, Z+1	; 0x01
     ca2:	82 81       	ldd	r24, Z+2	; 0x02
     ca4:	93 81       	ldd	r25, Z+3	; 0x03
     ca6:	0c 5f       	subi	r16, 0xFC	; 252
     ca8:	1f 4f       	sbci	r17, 0xFF	; 255
     caa:	08 c0       	rjmp	.+16     	; 0xcbc <vfprintf+0x1f6>
     cac:	60 81       	ld	r22, Z
     cae:	71 81       	ldd	r23, Z+1	; 0x01
     cb0:	07 2e       	mov	r0, r23
     cb2:	00 0c       	add	r0, r0
     cb4:	88 0b       	sbc	r24, r24
     cb6:	99 0b       	sbc	r25, r25
     cb8:	0e 5f       	subi	r16, 0xFE	; 254
     cba:	1f 4f       	sbci	r17, 0xFF	; 255
     cbc:	f3 2d       	mov	r31, r3
     cbe:	ff 76       	andi	r31, 0x6F	; 111
     cc0:	3f 2e       	mov	r3, r31
     cc2:	97 ff       	sbrs	r25, 7
     cc4:	09 c0       	rjmp	.+18     	; 0xcd8 <vfprintf+0x212>
     cc6:	90 95       	com	r25
     cc8:	80 95       	com	r24
     cca:	70 95       	com	r23
     ccc:	61 95       	neg	r22
     cce:	7f 4f       	sbci	r23, 0xFF	; 255
     cd0:	8f 4f       	sbci	r24, 0xFF	; 255
     cd2:	9f 4f       	sbci	r25, 0xFF	; 255
     cd4:	f0 68       	ori	r31, 0x80	; 128
     cd6:	3f 2e       	mov	r3, r31
     cd8:	2a e0       	ldi	r18, 0x0A	; 10
     cda:	30 e0       	ldi	r19, 0x00	; 0
     cdc:	a3 01       	movw	r20, r6
     cde:	0e 94 96 07 	call	0xf2c	; 0xf2c <__ultoa_invert>
     ce2:	88 2e       	mov	r8, r24
     ce4:	86 18       	sub	r8, r6
     ce6:	45 c0       	rjmp	.+138    	; 0xd72 <vfprintf+0x2ac>
     ce8:	85 37       	cpi	r24, 0x75	; 117
     cea:	31 f4       	brne	.+12     	; 0xcf8 <vfprintf+0x232>
     cec:	23 2d       	mov	r18, r3
     cee:	2f 7e       	andi	r18, 0xEF	; 239
     cf0:	b2 2e       	mov	r11, r18
     cf2:	2a e0       	ldi	r18, 0x0A	; 10
     cf4:	30 e0       	ldi	r19, 0x00	; 0
     cf6:	25 c0       	rjmp	.+74     	; 0xd42 <vfprintf+0x27c>
     cf8:	93 2d       	mov	r25, r3
     cfa:	99 7f       	andi	r25, 0xF9	; 249
     cfc:	b9 2e       	mov	r11, r25
     cfe:	8f 36       	cpi	r24, 0x6F	; 111
     d00:	c1 f0       	breq	.+48     	; 0xd32 <vfprintf+0x26c>
     d02:	18 f4       	brcc	.+6      	; 0xd0a <vfprintf+0x244>
     d04:	88 35       	cpi	r24, 0x58	; 88
     d06:	79 f0       	breq	.+30     	; 0xd26 <vfprintf+0x260>
     d08:	b5 c0       	rjmp	.+362    	; 0xe74 <vfprintf+0x3ae>
     d0a:	80 37       	cpi	r24, 0x70	; 112
     d0c:	19 f0       	breq	.+6      	; 0xd14 <vfprintf+0x24e>
     d0e:	88 37       	cpi	r24, 0x78	; 120
     d10:	21 f0       	breq	.+8      	; 0xd1a <vfprintf+0x254>
     d12:	b0 c0       	rjmp	.+352    	; 0xe74 <vfprintf+0x3ae>
     d14:	e9 2f       	mov	r30, r25
     d16:	e0 61       	ori	r30, 0x10	; 16
     d18:	be 2e       	mov	r11, r30
     d1a:	b4 fe       	sbrs	r11, 4
     d1c:	0d c0       	rjmp	.+26     	; 0xd38 <vfprintf+0x272>
     d1e:	fb 2d       	mov	r31, r11
     d20:	f4 60       	ori	r31, 0x04	; 4
     d22:	bf 2e       	mov	r11, r31
     d24:	09 c0       	rjmp	.+18     	; 0xd38 <vfprintf+0x272>
     d26:	34 fe       	sbrs	r3, 4
     d28:	0a c0       	rjmp	.+20     	; 0xd3e <vfprintf+0x278>
     d2a:	29 2f       	mov	r18, r25
     d2c:	26 60       	ori	r18, 0x06	; 6
     d2e:	b2 2e       	mov	r11, r18
     d30:	06 c0       	rjmp	.+12     	; 0xd3e <vfprintf+0x278>
     d32:	28 e0       	ldi	r18, 0x08	; 8
     d34:	30 e0       	ldi	r19, 0x00	; 0
     d36:	05 c0       	rjmp	.+10     	; 0xd42 <vfprintf+0x27c>
     d38:	20 e1       	ldi	r18, 0x10	; 16
     d3a:	30 e0       	ldi	r19, 0x00	; 0
     d3c:	02 c0       	rjmp	.+4      	; 0xd42 <vfprintf+0x27c>
     d3e:	20 e1       	ldi	r18, 0x10	; 16
     d40:	32 e0       	ldi	r19, 0x02	; 2
     d42:	f8 01       	movw	r30, r16
     d44:	b7 fe       	sbrs	r11, 7
     d46:	07 c0       	rjmp	.+14     	; 0xd56 <vfprintf+0x290>
     d48:	60 81       	ld	r22, Z
     d4a:	71 81       	ldd	r23, Z+1	; 0x01
     d4c:	82 81       	ldd	r24, Z+2	; 0x02
     d4e:	93 81       	ldd	r25, Z+3	; 0x03
     d50:	0c 5f       	subi	r16, 0xFC	; 252
     d52:	1f 4f       	sbci	r17, 0xFF	; 255
     d54:	06 c0       	rjmp	.+12     	; 0xd62 <vfprintf+0x29c>
     d56:	60 81       	ld	r22, Z
     d58:	71 81       	ldd	r23, Z+1	; 0x01
     d5a:	80 e0       	ldi	r24, 0x00	; 0
     d5c:	90 e0       	ldi	r25, 0x00	; 0
     d5e:	0e 5f       	subi	r16, 0xFE	; 254
     d60:	1f 4f       	sbci	r17, 0xFF	; 255
     d62:	a3 01       	movw	r20, r6
     d64:	0e 94 96 07 	call	0xf2c	; 0xf2c <__ultoa_invert>
     d68:	88 2e       	mov	r8, r24
     d6a:	86 18       	sub	r8, r6
     d6c:	fb 2d       	mov	r31, r11
     d6e:	ff 77       	andi	r31, 0x7F	; 127
     d70:	3f 2e       	mov	r3, r31
     d72:	36 fe       	sbrs	r3, 6
     d74:	0d c0       	rjmp	.+26     	; 0xd90 <vfprintf+0x2ca>
     d76:	23 2d       	mov	r18, r3
     d78:	2e 7f       	andi	r18, 0xFE	; 254
     d7a:	a2 2e       	mov	r10, r18
     d7c:	89 14       	cp	r8, r9
     d7e:	58 f4       	brcc	.+22     	; 0xd96 <vfprintf+0x2d0>
     d80:	34 fe       	sbrs	r3, 4
     d82:	0b c0       	rjmp	.+22     	; 0xd9a <vfprintf+0x2d4>
     d84:	32 fc       	sbrc	r3, 2
     d86:	09 c0       	rjmp	.+18     	; 0xd9a <vfprintf+0x2d4>
     d88:	83 2d       	mov	r24, r3
     d8a:	8e 7e       	andi	r24, 0xEE	; 238
     d8c:	a8 2e       	mov	r10, r24
     d8e:	05 c0       	rjmp	.+10     	; 0xd9a <vfprintf+0x2d4>
     d90:	b8 2c       	mov	r11, r8
     d92:	a3 2c       	mov	r10, r3
     d94:	03 c0       	rjmp	.+6      	; 0xd9c <vfprintf+0x2d6>
     d96:	b8 2c       	mov	r11, r8
     d98:	01 c0       	rjmp	.+2      	; 0xd9c <vfprintf+0x2d6>
     d9a:	b9 2c       	mov	r11, r9
     d9c:	a4 fe       	sbrs	r10, 4
     d9e:	0f c0       	rjmp	.+30     	; 0xdbe <vfprintf+0x2f8>
     da0:	fe 01       	movw	r30, r28
     da2:	e8 0d       	add	r30, r8
     da4:	f1 1d       	adc	r31, r1
     da6:	80 81       	ld	r24, Z
     da8:	80 33       	cpi	r24, 0x30	; 48
     daa:	21 f4       	brne	.+8      	; 0xdb4 <vfprintf+0x2ee>
     dac:	9a 2d       	mov	r25, r10
     dae:	99 7e       	andi	r25, 0xE9	; 233
     db0:	a9 2e       	mov	r10, r25
     db2:	09 c0       	rjmp	.+18     	; 0xdc6 <vfprintf+0x300>
     db4:	a2 fe       	sbrs	r10, 2
     db6:	06 c0       	rjmp	.+12     	; 0xdc4 <vfprintf+0x2fe>
     db8:	b3 94       	inc	r11
     dba:	b3 94       	inc	r11
     dbc:	04 c0       	rjmp	.+8      	; 0xdc6 <vfprintf+0x300>
     dbe:	8a 2d       	mov	r24, r10
     dc0:	86 78       	andi	r24, 0x86	; 134
     dc2:	09 f0       	breq	.+2      	; 0xdc6 <vfprintf+0x300>
     dc4:	b3 94       	inc	r11
     dc6:	a3 fc       	sbrc	r10, 3
     dc8:	11 c0       	rjmp	.+34     	; 0xdec <vfprintf+0x326>
     dca:	a0 fe       	sbrs	r10, 0
     dcc:	06 c0       	rjmp	.+12     	; 0xdda <vfprintf+0x314>
     dce:	b2 14       	cp	r11, r2
     dd0:	88 f4       	brcc	.+34     	; 0xdf4 <vfprintf+0x32e>
     dd2:	28 0c       	add	r2, r8
     dd4:	92 2c       	mov	r9, r2
     dd6:	9b 18       	sub	r9, r11
     dd8:	0e c0       	rjmp	.+28     	; 0xdf6 <vfprintf+0x330>
     dda:	b2 14       	cp	r11, r2
     ddc:	60 f4       	brcc	.+24     	; 0xdf6 <vfprintf+0x330>
     dde:	b6 01       	movw	r22, r12
     de0:	80 e2       	ldi	r24, 0x20	; 32
     de2:	90 e0       	ldi	r25, 0x00	; 0
     de4:	0e 94 5a 07 	call	0xeb4	; 0xeb4 <fputc>
     de8:	b3 94       	inc	r11
     dea:	f7 cf       	rjmp	.-18     	; 0xdda <vfprintf+0x314>
     dec:	b2 14       	cp	r11, r2
     dee:	18 f4       	brcc	.+6      	; 0xdf6 <vfprintf+0x330>
     df0:	2b 18       	sub	r2, r11
     df2:	02 c0       	rjmp	.+4      	; 0xdf8 <vfprintf+0x332>
     df4:	98 2c       	mov	r9, r8
     df6:	21 2c       	mov	r2, r1
     df8:	a4 fe       	sbrs	r10, 4
     dfa:	10 c0       	rjmp	.+32     	; 0xe1c <vfprintf+0x356>
     dfc:	b6 01       	movw	r22, r12
     dfe:	80 e3       	ldi	r24, 0x30	; 48
     e00:	90 e0       	ldi	r25, 0x00	; 0
     e02:	0e 94 5a 07 	call	0xeb4	; 0xeb4 <fputc>
     e06:	a2 fe       	sbrs	r10, 2
     e08:	17 c0       	rjmp	.+46     	; 0xe38 <vfprintf+0x372>
     e0a:	a1 fc       	sbrc	r10, 1
     e0c:	03 c0       	rjmp	.+6      	; 0xe14 <vfprintf+0x34e>
     e0e:	88 e7       	ldi	r24, 0x78	; 120
     e10:	90 e0       	ldi	r25, 0x00	; 0
     e12:	02 c0       	rjmp	.+4      	; 0xe18 <vfprintf+0x352>
     e14:	88 e5       	ldi	r24, 0x58	; 88
     e16:	90 e0       	ldi	r25, 0x00	; 0
     e18:	b6 01       	movw	r22, r12
     e1a:	0c c0       	rjmp	.+24     	; 0xe34 <vfprintf+0x36e>
     e1c:	8a 2d       	mov	r24, r10
     e1e:	86 78       	andi	r24, 0x86	; 134
     e20:	59 f0       	breq	.+22     	; 0xe38 <vfprintf+0x372>
     e22:	a1 fe       	sbrs	r10, 1
     e24:	02 c0       	rjmp	.+4      	; 0xe2a <vfprintf+0x364>
     e26:	8b e2       	ldi	r24, 0x2B	; 43
     e28:	01 c0       	rjmp	.+2      	; 0xe2c <vfprintf+0x366>
     e2a:	80 e2       	ldi	r24, 0x20	; 32
     e2c:	a7 fc       	sbrc	r10, 7
     e2e:	8d e2       	ldi	r24, 0x2D	; 45
     e30:	b6 01       	movw	r22, r12
     e32:	90 e0       	ldi	r25, 0x00	; 0
     e34:	0e 94 5a 07 	call	0xeb4	; 0xeb4 <fputc>
     e38:	89 14       	cp	r8, r9
     e3a:	38 f4       	brcc	.+14     	; 0xe4a <vfprintf+0x384>
     e3c:	b6 01       	movw	r22, r12
     e3e:	80 e3       	ldi	r24, 0x30	; 48
     e40:	90 e0       	ldi	r25, 0x00	; 0
     e42:	0e 94 5a 07 	call	0xeb4	; 0xeb4 <fputc>
     e46:	9a 94       	dec	r9
     e48:	f7 cf       	rjmp	.-18     	; 0xe38 <vfprintf+0x372>
     e4a:	8a 94       	dec	r8
     e4c:	f3 01       	movw	r30, r6
     e4e:	e8 0d       	add	r30, r8
     e50:	f1 1d       	adc	r31, r1
     e52:	80 81       	ld	r24, Z
     e54:	b6 01       	movw	r22, r12
     e56:	90 e0       	ldi	r25, 0x00	; 0
     e58:	0e 94 5a 07 	call	0xeb4	; 0xeb4 <fputc>
     e5c:	81 10       	cpse	r8, r1
     e5e:	f5 cf       	rjmp	.-22     	; 0xe4a <vfprintf+0x384>
     e60:	22 20       	and	r2, r2
     e62:	09 f4       	brne	.+2      	; 0xe66 <vfprintf+0x3a0>
     e64:	42 ce       	rjmp	.-892    	; 0xaea <vfprintf+0x24>
     e66:	b6 01       	movw	r22, r12
     e68:	80 e2       	ldi	r24, 0x20	; 32
     e6a:	90 e0       	ldi	r25, 0x00	; 0
     e6c:	0e 94 5a 07 	call	0xeb4	; 0xeb4 <fputc>
     e70:	2a 94       	dec	r2
     e72:	f6 cf       	rjmp	.-20     	; 0xe60 <vfprintf+0x39a>
     e74:	f6 01       	movw	r30, r12
     e76:	86 81       	ldd	r24, Z+6	; 0x06
     e78:	97 81       	ldd	r25, Z+7	; 0x07
     e7a:	02 c0       	rjmp	.+4      	; 0xe80 <vfprintf+0x3ba>
     e7c:	8f ef       	ldi	r24, 0xFF	; 255
     e7e:	9f ef       	ldi	r25, 0xFF	; 255
     e80:	2b 96       	adiw	r28, 0x0b	; 11
     e82:	e2 e1       	ldi	r30, 0x12	; 18
     e84:	0c 94 10 08 	jmp	0x1020	; 0x1020 <__epilogue_restores__>

00000e88 <strnlen_P>:
     e88:	fc 01       	movw	r30, r24
     e8a:	05 90       	lpm	r0, Z+
     e8c:	61 50       	subi	r22, 0x01	; 1
     e8e:	70 40       	sbci	r23, 0x00	; 0
     e90:	01 10       	cpse	r0, r1
     e92:	d8 f7       	brcc	.-10     	; 0xe8a <strnlen_P+0x2>
     e94:	80 95       	com	r24
     e96:	90 95       	com	r25
     e98:	8e 0f       	add	r24, r30
     e9a:	9f 1f       	adc	r25, r31
     e9c:	08 95       	ret

00000e9e <strnlen>:
     e9e:	fc 01       	movw	r30, r24
     ea0:	61 50       	subi	r22, 0x01	; 1
     ea2:	70 40       	sbci	r23, 0x00	; 0
     ea4:	01 90       	ld	r0, Z+
     ea6:	01 10       	cpse	r0, r1
     ea8:	d8 f7       	brcc	.-10     	; 0xea0 <strnlen+0x2>
     eaa:	80 95       	com	r24
     eac:	90 95       	com	r25
     eae:	8e 0f       	add	r24, r30
     eb0:	9f 1f       	adc	r25, r31
     eb2:	08 95       	ret

00000eb4 <fputc>:
     eb4:	0f 93       	push	r16
     eb6:	1f 93       	push	r17
     eb8:	cf 93       	push	r28
     eba:	df 93       	push	r29
     ebc:	fb 01       	movw	r30, r22
     ebe:	23 81       	ldd	r18, Z+3	; 0x03
     ec0:	21 fd       	sbrc	r18, 1
     ec2:	03 c0       	rjmp	.+6      	; 0xeca <fputc+0x16>
     ec4:	8f ef       	ldi	r24, 0xFF	; 255
     ec6:	9f ef       	ldi	r25, 0xFF	; 255
     ec8:	2c c0       	rjmp	.+88     	; 0xf22 <fputc+0x6e>
     eca:	22 ff       	sbrs	r18, 2
     ecc:	16 c0       	rjmp	.+44     	; 0xefa <fputc+0x46>
     ece:	46 81       	ldd	r20, Z+6	; 0x06
     ed0:	57 81       	ldd	r21, Z+7	; 0x07
     ed2:	24 81       	ldd	r18, Z+4	; 0x04
     ed4:	35 81       	ldd	r19, Z+5	; 0x05
     ed6:	42 17       	cp	r20, r18
     ed8:	53 07       	cpc	r21, r19
     eda:	44 f4       	brge	.+16     	; 0xeec <fputc+0x38>
     edc:	a0 81       	ld	r26, Z
     ede:	b1 81       	ldd	r27, Z+1	; 0x01
     ee0:	9d 01       	movw	r18, r26
     ee2:	2f 5f       	subi	r18, 0xFF	; 255
     ee4:	3f 4f       	sbci	r19, 0xFF	; 255
     ee6:	31 83       	std	Z+1, r19	; 0x01
     ee8:	20 83       	st	Z, r18
     eea:	8c 93       	st	X, r24
     eec:	26 81       	ldd	r18, Z+6	; 0x06
     eee:	37 81       	ldd	r19, Z+7	; 0x07
     ef0:	2f 5f       	subi	r18, 0xFF	; 255
     ef2:	3f 4f       	sbci	r19, 0xFF	; 255
     ef4:	37 83       	std	Z+7, r19	; 0x07
     ef6:	26 83       	std	Z+6, r18	; 0x06
     ef8:	14 c0       	rjmp	.+40     	; 0xf22 <fputc+0x6e>
     efa:	8b 01       	movw	r16, r22
     efc:	ec 01       	movw	r28, r24
     efe:	fb 01       	movw	r30, r22
     f00:	00 84       	ldd	r0, Z+8	; 0x08
     f02:	f1 85       	ldd	r31, Z+9	; 0x09
     f04:	e0 2d       	mov	r30, r0
     f06:	09 95       	icall
     f08:	89 2b       	or	r24, r25
     f0a:	e1 f6       	brne	.-72     	; 0xec4 <fputc+0x10>
     f0c:	d8 01       	movw	r26, r16
     f0e:	16 96       	adiw	r26, 0x06	; 6
     f10:	8d 91       	ld	r24, X+
     f12:	9c 91       	ld	r25, X
     f14:	17 97       	sbiw	r26, 0x07	; 7
     f16:	01 96       	adiw	r24, 0x01	; 1
     f18:	17 96       	adiw	r26, 0x07	; 7
     f1a:	9c 93       	st	X, r25
     f1c:	8e 93       	st	-X, r24
     f1e:	16 97       	sbiw	r26, 0x06	; 6
     f20:	ce 01       	movw	r24, r28
     f22:	df 91       	pop	r29
     f24:	cf 91       	pop	r28
     f26:	1f 91       	pop	r17
     f28:	0f 91       	pop	r16
     f2a:	08 95       	ret

00000f2c <__ultoa_invert>:
     f2c:	fa 01       	movw	r30, r20
     f2e:	aa 27       	eor	r26, r26
     f30:	28 30       	cpi	r18, 0x08	; 8
     f32:	51 f1       	breq	.+84     	; 0xf88 <__ultoa_invert+0x5c>
     f34:	20 31       	cpi	r18, 0x10	; 16
     f36:	81 f1       	breq	.+96     	; 0xf98 <__ultoa_invert+0x6c>
     f38:	e8 94       	clt
     f3a:	6f 93       	push	r22
     f3c:	6e 7f       	andi	r22, 0xFE	; 254
     f3e:	6e 5f       	subi	r22, 0xFE	; 254
     f40:	7f 4f       	sbci	r23, 0xFF	; 255
     f42:	8f 4f       	sbci	r24, 0xFF	; 255
     f44:	9f 4f       	sbci	r25, 0xFF	; 255
     f46:	af 4f       	sbci	r26, 0xFF	; 255
     f48:	b1 e0       	ldi	r27, 0x01	; 1
     f4a:	3e d0       	rcall	.+124    	; 0xfc8 <__ultoa_invert+0x9c>
     f4c:	b4 e0       	ldi	r27, 0x04	; 4
     f4e:	3c d0       	rcall	.+120    	; 0xfc8 <__ultoa_invert+0x9c>
     f50:	67 0f       	add	r22, r23
     f52:	78 1f       	adc	r23, r24
     f54:	89 1f       	adc	r24, r25
     f56:	9a 1f       	adc	r25, r26
     f58:	a1 1d       	adc	r26, r1
     f5a:	68 0f       	add	r22, r24
     f5c:	79 1f       	adc	r23, r25
     f5e:	8a 1f       	adc	r24, r26
     f60:	91 1d       	adc	r25, r1
     f62:	a1 1d       	adc	r26, r1
     f64:	6a 0f       	add	r22, r26
     f66:	71 1d       	adc	r23, r1
     f68:	81 1d       	adc	r24, r1
     f6a:	91 1d       	adc	r25, r1
     f6c:	a1 1d       	adc	r26, r1
     f6e:	20 d0       	rcall	.+64     	; 0xfb0 <__ultoa_invert+0x84>
     f70:	09 f4       	brne	.+2      	; 0xf74 <__ultoa_invert+0x48>
     f72:	68 94       	set
     f74:	3f 91       	pop	r19
     f76:	2a e0       	ldi	r18, 0x0A	; 10
     f78:	26 9f       	mul	r18, r22
     f7a:	11 24       	eor	r1, r1
     f7c:	30 19       	sub	r19, r0
     f7e:	30 5d       	subi	r19, 0xD0	; 208
     f80:	31 93       	st	Z+, r19
     f82:	de f6       	brtc	.-74     	; 0xf3a <__ultoa_invert+0xe>
     f84:	cf 01       	movw	r24, r30
     f86:	08 95       	ret
     f88:	46 2f       	mov	r20, r22
     f8a:	47 70       	andi	r20, 0x07	; 7
     f8c:	40 5d       	subi	r20, 0xD0	; 208
     f8e:	41 93       	st	Z+, r20
     f90:	b3 e0       	ldi	r27, 0x03	; 3
     f92:	0f d0       	rcall	.+30     	; 0xfb2 <__ultoa_invert+0x86>
     f94:	c9 f7       	brne	.-14     	; 0xf88 <__ultoa_invert+0x5c>
     f96:	f6 cf       	rjmp	.-20     	; 0xf84 <__ultoa_invert+0x58>
     f98:	46 2f       	mov	r20, r22
     f9a:	4f 70       	andi	r20, 0x0F	; 15
     f9c:	40 5d       	subi	r20, 0xD0	; 208
     f9e:	4a 33       	cpi	r20, 0x3A	; 58
     fa0:	18 f0       	brcs	.+6      	; 0xfa8 <__ultoa_invert+0x7c>
     fa2:	49 5d       	subi	r20, 0xD9	; 217
     fa4:	31 fd       	sbrc	r19, 1
     fa6:	40 52       	subi	r20, 0x20	; 32
     fa8:	41 93       	st	Z+, r20
     faa:	02 d0       	rcall	.+4      	; 0xfb0 <__ultoa_invert+0x84>
     fac:	a9 f7       	brne	.-22     	; 0xf98 <__ultoa_invert+0x6c>
     fae:	ea cf       	rjmp	.-44     	; 0xf84 <__ultoa_invert+0x58>
     fb0:	b4 e0       	ldi	r27, 0x04	; 4
     fb2:	a6 95       	lsr	r26
     fb4:	97 95       	ror	r25
     fb6:	87 95       	ror	r24
     fb8:	77 95       	ror	r23
     fba:	67 95       	ror	r22
     fbc:	ba 95       	dec	r27
     fbe:	c9 f7       	brne	.-14     	; 0xfb2 <__ultoa_invert+0x86>
     fc0:	00 97       	sbiw	r24, 0x00	; 0
     fc2:	61 05       	cpc	r22, r1
     fc4:	71 05       	cpc	r23, r1
     fc6:	08 95       	ret
     fc8:	9b 01       	movw	r18, r22
     fca:	ac 01       	movw	r20, r24
     fcc:	0a 2e       	mov	r0, r26
     fce:	06 94       	lsr	r0
     fd0:	57 95       	ror	r21
     fd2:	47 95       	ror	r20
     fd4:	37 95       	ror	r19
     fd6:	27 95       	ror	r18
     fd8:	ba 95       	dec	r27
     fda:	c9 f7       	brne	.-14     	; 0xfce <__ultoa_invert+0xa2>
     fdc:	62 0f       	add	r22, r18
     fde:	73 1f       	adc	r23, r19
     fe0:	84 1f       	adc	r24, r20
     fe2:	95 1f       	adc	r25, r21
     fe4:	a0 1d       	adc	r26, r0
     fe6:	08 95       	ret

00000fe8 <__prologue_saves__>:
     fe8:	2f 92       	push	r2
     fea:	3f 92       	push	r3
     fec:	4f 92       	push	r4
     fee:	5f 92       	push	r5
     ff0:	6f 92       	push	r6
     ff2:	7f 92       	push	r7
     ff4:	8f 92       	push	r8
     ff6:	9f 92       	push	r9
     ff8:	af 92       	push	r10
     ffa:	bf 92       	push	r11
     ffc:	cf 92       	push	r12
     ffe:	df 92       	push	r13
    1000:	ef 92       	push	r14
    1002:	ff 92       	push	r15
    1004:	0f 93       	push	r16
    1006:	1f 93       	push	r17
    1008:	cf 93       	push	r28
    100a:	df 93       	push	r29
    100c:	cd b7       	in	r28, 0x3d	; 61
    100e:	de b7       	in	r29, 0x3e	; 62
    1010:	ca 1b       	sub	r28, r26
    1012:	db 0b       	sbc	r29, r27
    1014:	0f b6       	in	r0, 0x3f	; 63
    1016:	f8 94       	cli
    1018:	de bf       	out	0x3e, r29	; 62
    101a:	0f be       	out	0x3f, r0	; 63
    101c:	cd bf       	out	0x3d, r28	; 61
    101e:	09 94       	ijmp

00001020 <__epilogue_restores__>:
    1020:	2a 88       	ldd	r2, Y+18	; 0x12
    1022:	39 88       	ldd	r3, Y+17	; 0x11
    1024:	48 88       	ldd	r4, Y+16	; 0x10
    1026:	5f 84       	ldd	r5, Y+15	; 0x0f
    1028:	6e 84       	ldd	r6, Y+14	; 0x0e
    102a:	7d 84       	ldd	r7, Y+13	; 0x0d
    102c:	8c 84       	ldd	r8, Y+12	; 0x0c
    102e:	9b 84       	ldd	r9, Y+11	; 0x0b
    1030:	aa 84       	ldd	r10, Y+10	; 0x0a
    1032:	b9 84       	ldd	r11, Y+9	; 0x09
    1034:	c8 84       	ldd	r12, Y+8	; 0x08
    1036:	df 80       	ldd	r13, Y+7	; 0x07
    1038:	ee 80       	ldd	r14, Y+6	; 0x06
    103a:	fd 80       	ldd	r15, Y+5	; 0x05
    103c:	0c 81       	ldd	r16, Y+4	; 0x04
    103e:	1b 81       	ldd	r17, Y+3	; 0x03
    1040:	aa 81       	ldd	r26, Y+2	; 0x02
    1042:	b9 81       	ldd	r27, Y+1	; 0x01
    1044:	ce 0f       	add	r28, r30
    1046:	d1 1d       	adc	r29, r1
    1048:	0f b6       	in	r0, 0x3f	; 63
    104a:	f8 94       	cli
    104c:	de bf       	out	0x3e, r29	; 62
    104e:	0f be       	out	0x3f, r0	; 63
    1050:	cd bf       	out	0x3d, r28	; 61
    1052:	ed 01       	movw	r28, r26
    1054:	08 95       	ret

00001056 <_exit>:
    1056:	f8 94       	cli

00001058 <__stop_program>:
    1058:	ff cf       	rjmp	.-2      	; 0x1058 <__stop_program>
