
CafeTrainAtmega328.elf:     file format elf32-avr

Sections:
Idx Name          Size      VMA       LMA       File off  Algn
  0 .data         000000c0  00800100  00000c6a  00000cfe  2**0
                  CONTENTS, ALLOC, LOAD, DATA
  1 .text         00000c6a  00000000  00000000  00000094  2**1
                  CONTENTS, ALLOC, LOAD, READONLY, CODE
  2 .bss          00000022  008001c0  008001c0  00000dbe  2**0
                  ALLOC
  3 .comment      0000005c  00000000  00000000  00000dbe  2**0
                  CONTENTS, READONLY
  4 .note.gnu.avr.deviceinfo 00000040  00000000  00000000  00000e1c  2**2
                  CONTENTS, READONLY
  5 .debug_aranges 00000158  00000000  00000000  00000e5c  2**0
                  CONTENTS, READONLY, DEBUGGING
  6 .debug_info   0000195f  00000000  00000000  00000fb4  2**0
                  CONTENTS, READONLY, DEBUGGING
  7 .debug_abbrev 00000d38  00000000  00000000  00002913  2**0
                  CONTENTS, READONLY, DEBUGGING
  8 .debug_line   00000c66  00000000  00000000  0000364b  2**0
                  CONTENTS, READONLY, DEBUGGING
  9 .debug_frame  00000300  00000000  00000000  000042b4  2**2
                  CONTENTS, READONLY, DEBUGGING
 10 .debug_str    00000730  00000000  00000000  000045b4  2**0
                  CONTENTS, READONLY, DEBUGGING
 11 .debug_loc    00000cd7  00000000  00000000  00004ce4  2**0
                  CONTENTS, READONLY, DEBUGGING
 12 .debug_ranges 00000118  00000000  00000000  000059bb  2**0
                  CONTENTS, READONLY, DEBUGGING

Disassembly of section .text:

00000000 <__vectors>:
   0:	0c 94 34 00 	jmp	0x68	; 0x68 <__ctors_end>
   4:	0c 94 51 00 	jmp	0xa2	; 0xa2 <__bad_interrupt>
   8:	0c 94 51 00 	jmp	0xa2	; 0xa2 <__bad_interrupt>
   c:	0c 94 51 00 	jmp	0xa2	; 0xa2 <__bad_interrupt>
  10:	0c 94 51 00 	jmp	0xa2	; 0xa2 <__bad_interrupt>
  14:	0c 94 51 00 	jmp	0xa2	; 0xa2 <__bad_interrupt>
  18:	0c 94 51 00 	jmp	0xa2	; 0xa2 <__bad_interrupt>
  1c:	0c 94 51 00 	jmp	0xa2	; 0xa2 <__bad_interrupt>
  20:	0c 94 51 00 	jmp	0xa2	; 0xa2 <__bad_interrupt>
  24:	0c 94 51 00 	jmp	0xa2	; 0xa2 <__bad_interrupt>
  28:	0c 94 51 00 	jmp	0xa2	; 0xa2 <__bad_interrupt>
  2c:	0c 94 51 00 	jmp	0xa2	; 0xa2 <__bad_interrupt>
  30:	0c 94 51 00 	jmp	0xa2	; 0xa2 <__bad_interrupt>
  34:	0c 94 51 00 	jmp	0xa2	; 0xa2 <__bad_interrupt>
  38:	0c 94 51 00 	jmp	0xa2	; 0xa2 <__bad_interrupt>
  3c:	0c 94 51 00 	jmp	0xa2	; 0xa2 <__bad_interrupt>
  40:	0c 94 51 00 	jmp	0xa2	; 0xa2 <__bad_interrupt>
  44:	0c 94 51 00 	jmp	0xa2	; 0xa2 <__bad_interrupt>
  48:	0c 94 51 00 	jmp	0xa2	; 0xa2 <__bad_interrupt>
  4c:	0c 94 51 00 	jmp	0xa2	; 0xa2 <__bad_interrupt>
  50:	0c 94 51 00 	jmp	0xa2	; 0xa2 <__bad_interrupt>
  54:	0c 94 51 00 	jmp	0xa2	; 0xa2 <__bad_interrupt>
  58:	0c 94 51 00 	jmp	0xa2	; 0xa2 <__bad_interrupt>
  5c:	0c 94 51 00 	jmp	0xa2	; 0xa2 <__bad_interrupt>
  60:	0c 94 51 00 	jmp	0xa2	; 0xa2 <__bad_interrupt>
  64:	0c 94 51 00 	jmp	0xa2	; 0xa2 <__bad_interrupt>

00000068 <__ctors_end>:
  68:	11 24       	eor	r1, r1
  6a:	1f be       	out	0x3f, r1	; 63
  6c:	cf ef       	ldi	r28, 0xFF	; 255
  6e:	d8 e0       	ldi	r29, 0x08	; 8
  70:	de bf       	out	0x3e, r29	; 62
  72:	cd bf       	out	0x3d, r28	; 61

00000074 <__do_copy_data>:
  74:	11 e0       	ldi	r17, 0x01	; 1
  76:	a0 e0       	ldi	r26, 0x00	; 0
  78:	b1 e0       	ldi	r27, 0x01	; 1
  7a:	ea e6       	ldi	r30, 0x6A	; 106
  7c:	fc e0       	ldi	r31, 0x0C	; 12
  7e:	02 c0       	rjmp	.+4      	; 0x84 <__do_copy_data+0x10>
  80:	05 90       	lpm	r0, Z+
  82:	0d 92       	st	X+, r0
  84:	a0 3c       	cpi	r26, 0xC0	; 192
  86:	b1 07       	cpc	r27, r17
  88:	d9 f7       	brne	.-10     	; 0x80 <__do_copy_data+0xc>

0000008a <__do_clear_bss>:
  8a:	21 e0       	ldi	r18, 0x01	; 1
  8c:	a0 ec       	ldi	r26, 0xC0	; 192
  8e:	b1 e0       	ldi	r27, 0x01	; 1
  90:	01 c0       	rjmp	.+2      	; 0x94 <.do_clear_bss_start>

00000092 <.do_clear_bss_loop>:
  92:	1d 92       	st	X+, r1

00000094 <.do_clear_bss_start>:
  94:	a2 3e       	cpi	r26, 0xE2	; 226
  96:	b2 07       	cpc	r27, r18
  98:	e1 f7       	brne	.-8      	; 0x92 <.do_clear_bss_loop>
  9a:	0e 94 be 01 	call	0x37c	; 0x37c <main>
  9e:	0c 94 33 06 	jmp	0xc66	; 0xc66 <_exit>

000000a2 <__bad_interrupt>:
  a2:	0c 94 00 00 	jmp	0	; 0x0 <__vectors>

000000a6 <I2C_Init>:



// --- ╘ґэъІшш фы  ЁрсюҐ√ ё I2C ---
void I2C_Init(void) {
	TWSR = 0x00;             // ╧ЁхффхышҐхы№ Ёртхэ 1
  a6:	10 92 b9 00 	sts	0x00B9, r1	; 0x8000b9 <__TEXT_REGION_LENGTH__+0x7f80b9>
	TWBR = 72;               // ╙ёҐрэртыштрхь ёъюЁюёҐ№ I2C = 100 ъ├І (16 ╠├І / 160)
  aa:	88 e4       	ldi	r24, 0x48	; 72
  ac:	80 93 b8 00 	sts	0x00B8, r24	; 0x8000b8 <__TEXT_REGION_LENGTH__+0x7f80b8>
	TWCR = (1 << TWEN);      // ┬ъы■ірхь ьюфґы№ TWI
  b0:	84 e0       	ldi	r24, 0x04	; 4
  b2:	80 93 bc 00 	sts	0x00BC, r24	; 0x8000bc <__TEXT_REGION_LENGTH__+0x7f80bc>
  b6:	08 95       	ret

000000b8 <I2C_Start>:
}

void I2C_Start(void) {
	TWCR = (1 << TWSTA) | (1 << TWEN) | (1 << TWINT);  // ├хэхЁрІш  START
  b8:	84 ea       	ldi	r24, 0xA4	; 164
  ba:	80 93 bc 00 	sts	0x00BC, r24	; 0x8000bc <__TEXT_REGION_LENGTH__+0x7f80bc>
	while (!(TWCR & (1 << TWINT)));                   // ╬цшфрэшх чртхЁЇхэш 
  be:	80 91 bc 00 	lds	r24, 0x00BC	; 0x8000bc <__TEXT_REGION_LENGTH__+0x7f80bc>
  c2:	88 23       	and	r24, r24
  c4:	e4 f7       	brge	.-8      	; 0xbe <I2C_Start+0x6>
}
  c6:	08 95       	ret

000000c8 <I2C_Stop>:

void I2C_Stop(void) {
	TWCR = (1 << TWSTO) | (1 << TWEN) | (1 << TWINT);  // ├хэхЁрІш  STOP
  c8:	84 e9       	ldi	r24, 0x94	; 148
  ca:	80 93 bc 00 	sts	0x00BC, r24	; 0x8000bc <__TEXT_REGION_LENGTH__+0x7f80bc>
	while (TWCR & (1 << TWSTO));                      // ╞фрҐ№ чртхЁЇхэш  STOP
  ce:	80 91 bc 00 	lds	r24, 0x00BC	; 0x8000bc <__TEXT_REGION_LENGTH__+0x7f80bc>
  d2:	84 fd       	sbrc	r24, 4
  d4:	fc cf       	rjmp	.-8      	; 0xce <I2C_Stop+0x6>
}
  d6:	08 95       	ret

000000d8 <I2C_Write>:

void I2C_Write(uint8_t data) {
	TWDR = data;                                      // ╟руЁґцрхь фрээ√х
  d8:	80 93 bb 00 	sts	0x00BB, r24	; 0x8000bb <__TEXT_REGION_LENGTH__+0x7f80bb>
	TWCR = (1 << TWEN) | (1 << TWINT);                // ═рірыю яхЁхфріш
  dc:	84 e8       	ldi	r24, 0x84	; 132
  de:	80 93 bc 00 	sts	0x00BC, r24	; 0x8000bc <__TEXT_REGION_LENGTH__+0x7f80bc>
	while (!(TWCR & (1 << TWINT)));                   // ╬цшфрэшх чртхЁЇхэш 
  e2:	80 91 bc 00 	lds	r24, 0x00BC	; 0x8000bc <__TEXT_REGION_LENGTH__+0x7f80bc>
  e6:	88 23       	and	r24, r24
  e8:	e4 f7       	brge	.-8      	; 0xe2 <I2C_Write+0xa>
}
  ea:	08 95       	ret

000000ec <LCD_Send>:

// --- ╘ґэъІшш фы  ґяЁртыхэш  LCD ---
void LCD_Send(uint8_t data, uint8_t mode) {
  ec:	0f 93       	push	r16
  ee:	1f 93       	push	r17
  f0:	cf 93       	push	r28
  f2:	df 93       	push	r29
	uint8_t highNibble = (data & 0xF0) | LCD_BACKLIGHT | mode;
  f4:	d8 2f       	mov	r29, r24
  f6:	d0 7f       	andi	r29, 0xF0	; 240
  f8:	d6 2b       	or	r29, r22
  fa:	0d 2f       	mov	r16, r29
  fc:	08 60       	ori	r16, 0x08	; 8
	uint8_t lowNibble = ((data << 4) & 0xF0) | LCD_BACKLIGHT | mode;
  fe:	20 e1       	ldi	r18, 0x10	; 16
 100:	82 9f       	mul	r24, r18
 102:	c0 01       	movw	r24, r0
 104:	11 24       	eor	r1, r1
 106:	c6 2f       	mov	r28, r22
 108:	c8 2b       	or	r28, r24
 10a:	1c 2f       	mov	r17, r28
 10c:	18 60       	ori	r17, 0x08	; 8

	I2C_Start();
 10e:	0e 94 5c 00 	call	0xb8	; 0xb8 <I2C_Start>
	I2C_Write(LCD_ADDRESS << 1); // └фЁхё ґёҐЁющёҐтр + сшҐ чряшёш
 112:	8e e4       	ldi	r24, 0x4E	; 78
 114:	0e 94 6c 00 	call	0xd8	; 0xd8 <I2C_Write>
	I2C_Write(highNibble);       // ╬ҐяЁртър ёҐрЁЇшє 4 сшҐ
 118:	80 2f       	mov	r24, r16
 11a:	0e 94 6c 00 	call	0xd8	; 0xd8 <I2C_Write>
	I2C_Write(highNibble | 0x04); // ╙ёҐрэютър EN = 1
 11e:	8d 2f       	mov	r24, r29
 120:	8c 60       	ori	r24, 0x0C	; 12
 122:	0e 94 6c 00 	call	0xd8	; 0xd8 <I2C_Write>
	I2C_Write(highNibble);       // ╤сЁюё EN = 0
 126:	80 2f       	mov	r24, r16
 128:	0e 94 6c 00 	call	0xd8	; 0xd8 <I2C_Write>
	I2C_Write(lowNibble);        // ╬ҐяЁртър ьырфЇшє 4 сшҐ
 12c:	81 2f       	mov	r24, r17
 12e:	0e 94 6c 00 	call	0xd8	; 0xd8 <I2C_Write>
	I2C_Write(lowNibble | 0x04); // ╙ёҐрэютър EN = 1
 132:	8c 2f       	mov	r24, r28
 134:	8c 60       	ori	r24, 0x0C	; 12
 136:	0e 94 6c 00 	call	0xd8	; 0xd8 <I2C_Write>
	I2C_Write(lowNibble);        // ╤сЁюё EN = 0
 13a:	81 2f       	mov	r24, r17
 13c:	0e 94 6c 00 	call	0xd8	; 0xd8 <I2C_Write>
	I2C_Stop();
 140:	0e 94 64 00 	call	0xc8	; 0xc8 <I2C_Stop>
}
 144:	df 91       	pop	r29
 146:	cf 91       	pop	r28
 148:	1f 91       	pop	r17
 14a:	0f 91       	pop	r16
 14c:	08 95       	ret

0000014e <LCD_Command>:

void LCD_Command(uint8_t command) {
	LCD_Send(command, 0x00); // ╧хЁхфрір ъюьрэф√ (Ёхцшь RS = 0)
 14e:	60 e0       	ldi	r22, 0x00	; 0
 150:	0e 94 76 00 	call	0xec	; 0xec <LCD_Send>
	#else
		//round up by default
		__ticks_dc = (uint32_t)(ceil(fabs(__tmp)));
	#endif

	__builtin_avr_delay_cycles(__ticks_dc);
 154:	8f e3       	ldi	r24, 0x3F	; 63
 156:	9f e1       	ldi	r25, 0x1F	; 31
 158:	01 97       	sbiw	r24, 0x01	; 1
 15a:	f1 f7       	brne	.-4      	; 0x158 <LCD_Command+0xa>
 15c:	00 c0       	rjmp	.+0      	; 0x15e <LCD_Command+0x10>
 15e:	00 00       	nop
 160:	08 95       	ret

00000162 <LCD_Data>:
	_delay_ms(2);            // ═хсюы№Їр  чрфхЁцър
}

void LCD_Data(uint8_t data) {
	LCD_Send(data, 0x01);    // ╧хЁхфрір фрээ√є (Ёхцшь RS = 1)
 162:	61 e0       	ldi	r22, 0x01	; 1
 164:	0e 94 76 00 	call	0xec	; 0xec <LCD_Send>
 168:	8f e3       	ldi	r24, 0x3F	; 63
 16a:	9f e1       	ldi	r25, 0x1F	; 31
 16c:	01 97       	sbiw	r24, 0x01	; 1
 16e:	f1 f7       	brne	.-4      	; 0x16c <LCD_Data+0xa>
 170:	00 c0       	rjmp	.+0      	; 0x172 <LCD_Data+0x10>
 172:	00 00       	nop
 174:	08 95       	ret

00000176 <LCD_Init>:
 176:	2f ef       	ldi	r18, 0xFF	; 255
 178:	80 e7       	ldi	r24, 0x70	; 112
 17a:	92 e0       	ldi	r25, 0x02	; 2
 17c:	21 50       	subi	r18, 0x01	; 1
 17e:	80 40       	sbci	r24, 0x00	; 0
 180:	90 40       	sbci	r25, 0x00	; 0
 182:	e1 f7       	brne	.-8      	; 0x17c <LCD_Init+0x6>
 184:	00 c0       	rjmp	.+0      	; 0x186 <LCD_Init+0x10>
 186:	00 00       	nop
	_delay_ms(2);            // ═хсюы№Їр  чрфхЁцър
}

void LCD_Init(void) {
	_delay_ms(50);           // ╟рфхЁцър яюёых яюфріш яшҐрэш 
	LCD_Command(0x03);       // ╨хцшь 8-сшҐэющ Їшэ√
 188:	83 e0       	ldi	r24, 0x03	; 3
 18a:	0e 94 a7 00 	call	0x14e	; 0x14e <LCD_Command>
 18e:	8f e1       	ldi	r24, 0x1F	; 31
 190:	9e e4       	ldi	r25, 0x4E	; 78
 192:	01 97       	sbiw	r24, 0x01	; 1
 194:	f1 f7       	brne	.-4      	; 0x192 <LCD_Init+0x1c>
 196:	00 c0       	rjmp	.+0      	; 0x198 <LCD_Init+0x22>
 198:	00 00       	nop
	_delay_ms(5);
	LCD_Command(0x03);       // ╧ютҐюЁ ъюьрэф√
 19a:	83 e0       	ldi	r24, 0x03	; 3
 19c:	0e 94 a7 00 	call	0x14e	; 0x14e <LCD_Command>
	#else
		//round up by default
		__ticks_dc = (uint32_t)(ceil(fabs(__tmp)));
	#endif

	__builtin_avr_delay_cycles(__ticks_dc);
 1a0:	87 e5       	ldi	r24, 0x57	; 87
 1a2:	92 e0       	ldi	r25, 0x02	; 2
 1a4:	01 97       	sbiw	r24, 0x01	; 1
 1a6:	f1 f7       	brne	.-4      	; 0x1a4 <LCD_Init+0x2e>
 1a8:	00 c0       	rjmp	.+0      	; 0x1aa <LCD_Init+0x34>
 1aa:	00 00       	nop
	_delay_us(150);
	LCD_Command(0x03);       // ╧ютҐюЁ ъюьрэф√
 1ac:	83 e0       	ldi	r24, 0x03	; 3
 1ae:	0e 94 a7 00 	call	0x14e	; 0x14e <LCD_Command>
	LCD_Command(0x02);       // ╧хЁхєюф т 4-сшҐэ√щ Ёхцшь
 1b2:	82 e0       	ldi	r24, 0x02	; 2
 1b4:	0e 94 a7 00 	call	0x14e	; 0x14e <LCD_Command>

	// ╩юэЄшуґЁрІш  фшёяых 
	LCD_Command(0x28);       // 4-сшҐэ√щ Ёхцшь, 2 ёҐЁюъш, 5x8 Ґюіъш
 1b8:	88 e2       	ldi	r24, 0x28	; 40
 1ba:	0e 94 a7 00 	call	0x14e	; 0x14e <LCD_Command>
	LCD_Command(0x08);       // ┬√ъы■ішҐ№ фшёяыхщ
 1be:	88 e0       	ldi	r24, 0x08	; 8
 1c0:	0e 94 a7 00 	call	0x14e	; 0x14e <LCD_Command>
	LCD_Command(0x01);       // ╬ішёҐшҐ№ фшёяыхщ
 1c4:	81 e0       	ldi	r24, 0x01	; 1
 1c6:	0e 94 a7 00 	call	0x14e	; 0x14e <LCD_Command>
	#else
		//round up by default
		__ticks_dc = (uint32_t)(ceil(fabs(__tmp)));
	#endif

	__builtin_avr_delay_cycles(__ticks_dc);
 1ca:	8f e3       	ldi	r24, 0x3F	; 63
 1cc:	9f e1       	ldi	r25, 0x1F	; 31
 1ce:	01 97       	sbiw	r24, 0x01	; 1
 1d0:	f1 f7       	brne	.-4      	; 0x1ce <LCD_Init+0x58>
 1d2:	00 c0       	rjmp	.+0      	; 0x1d4 <LCD_Init+0x5e>
 1d4:	00 00       	nop
	_delay_ms(2);
	LCD_Command(0x06);       // ╚эъЁхьхэҐ ъґЁёюЁр
 1d6:	86 e0       	ldi	r24, 0x06	; 6
 1d8:	0e 94 a7 00 	call	0x14e	; 0x14e <LCD_Command>
	LCD_Command(0x0C);       // ┬ъы■ішҐ№ фшёяыхщ, ъґЁёюЁ т√ъы■іхэ
 1dc:	8c e0       	ldi	r24, 0x0C	; 12
 1de:	0e 94 a7 00 	call	0x14e	; 0x14e <LCD_Command>
 1e2:	08 95       	ret

000001e4 <LCD_Clear>:
}

void LCD_Clear(void) {
	LCD_Command(0x01);       // ╬ішёҐър фшёяых 
 1e4:	81 e0       	ldi	r24, 0x01	; 1
 1e6:	0e 94 a7 00 	call	0x14e	; 0x14e <LCD_Command>
 1ea:	8f e3       	ldi	r24, 0x3F	; 63
 1ec:	9f e1       	ldi	r25, 0x1F	; 31
 1ee:	01 97       	sbiw	r24, 0x01	; 1
 1f0:	f1 f7       	brne	.-4      	; 0x1ee <LCD_Clear+0xa>
 1f2:	00 c0       	rjmp	.+0      	; 0x1f4 <LCD_Clear+0x10>
 1f4:	00 00       	nop
 1f6:	08 95       	ret

000001f8 <LCD_SetCursor>:
	_delay_ms(2);
}

void LCD_SetCursor(uint8_t col, uint8_t row) {
 1f8:	cf 93       	push	r28
 1fa:	df 93       	push	r29
 1fc:	00 d0       	rcall	.+0      	; 0x1fe <LCD_SetCursor+0x6>
 1fe:	00 d0       	rcall	.+0      	; 0x200 <LCD_SetCursor+0x8>
 200:	cd b7       	in	r28, 0x3d	; 61
 202:	de b7       	in	r29, 0x3e	; 62
	uint8_t row_offsets[] = {0x00, 0x40, 0x14, 0x54};
 204:	19 82       	std	Y+1, r1	; 0x01
 206:	90 e4       	ldi	r25, 0x40	; 64
 208:	9a 83       	std	Y+2, r25	; 0x02
 20a:	94 e1       	ldi	r25, 0x14	; 20
 20c:	9b 83       	std	Y+3, r25	; 0x03
 20e:	94 e5       	ldi	r25, 0x54	; 84
 210:	9c 83       	std	Y+4, r25	; 0x04
	LCD_Command(0x80 | (col + row_offsets[row])); // ╙ёҐрэютър рфЁхёр DDRAM
 212:	e1 e0       	ldi	r30, 0x01	; 1
 214:	f0 e0       	ldi	r31, 0x00	; 0
 216:	ec 0f       	add	r30, r28
 218:	fd 1f       	adc	r31, r29
 21a:	e6 0f       	add	r30, r22
 21c:	f1 1d       	adc	r31, r1
 21e:	90 81       	ld	r25, Z
 220:	89 0f       	add	r24, r25
 222:	80 68       	ori	r24, 0x80	; 128
 224:	0e 94 a7 00 	call	0x14e	; 0x14e <LCD_Command>
}
 228:	0f 90       	pop	r0
 22a:	0f 90       	pop	r0
 22c:	0f 90       	pop	r0
 22e:	0f 90       	pop	r0
 230:	df 91       	pop	r29
 232:	cf 91       	pop	r28
 234:	08 95       	ret

00000236 <LCD_Print>:

void LCD_Print(char* str) {
 236:	cf 93       	push	r28
 238:	df 93       	push	r29
 23a:	ec 01       	movw	r28, r24
	while (*str) {
 23c:	03 c0       	rjmp	.+6      	; 0x244 <LCD_Print+0xe>
		LCD_Data(*str++);
 23e:	21 96       	adiw	r28, 0x01	; 1
 240:	0e 94 b1 00 	call	0x162	; 0x162 <LCD_Data>
	uint8_t row_offsets[] = {0x00, 0x40, 0x14, 0x54};
	LCD_Command(0x80 | (col + row_offsets[row])); // ╙ёҐрэютър рфЁхёр DDRAM
}

void LCD_Print(char* str) {
	while (*str) {
 244:	88 81       	ld	r24, Y
 246:	81 11       	cpse	r24, r1
 248:	fa cf       	rjmp	.-12     	; 0x23e <LCD_Print+0x8>
		LCD_Data(*str++);
	}
}
 24a:	df 91       	pop	r29
 24c:	cf 91       	pop	r28
 24e:	08 95       	ret

00000250 <LCD_Blink>:

void LCD_Blink(char* buffer) {
 250:	af 92       	push	r10
 252:	bf 92       	push	r11
 254:	cf 92       	push	r12
 256:	df 92       	push	r13
 258:	ef 92       	push	r14
 25a:	ff 92       	push	r15
 25c:	0f 93       	push	r16
 25e:	1f 93       	push	r17
 260:	cf 93       	push	r28
 262:	df 93       	push	r29
 264:	cd b7       	in	r28, 0x3d	; 61
 266:	de b7       	in	r29, 0x3e	; 62
 268:	fc 01       	movw	r30, r24
		blankString[length] = '\0'; // ╟ртхЁЇрхь ёҐЁюъґ эґыхт√ь ёшьтюыюь
		LCD_Print(blankString); // ╧хірҐрхь яґёҐґ■ ёҐЁюъґ
		} else {
		LCD_Print(buffer); // ╧хірҐрхь ёҐЁюъґ
	}
}
 26a:	0d b7       	in	r16, 0x3d	; 61
 26c:	1e b7       	in	r17, 0x3e	; 62

void LCD_Blink(char* buffer) {
	static uint8_t toggle = 0; // ╘ыру яхЁхъы■іхэш 
	static uint8_t counter = 0; // ╤іхҐішъ фы  ъюэҐЁюы  ьшурэш 
	uint8_t blinkCyclesNumber = 20; // ╩юышіхёҐтю Ішъыют ьхцфґ ьшурэш ьш
	uint8_t length = strlen(buffer); // ─ышэр ёҐЁюъш
 26e:	dc 01       	movw	r26, r24
 270:	0d 90       	ld	r0, X+
 272:	00 20       	and	r0, r0
 274:	e9 f7       	brne	.-6      	; 0x270 <LCD_Blink+0x20>
 276:	11 97       	sbiw	r26, 0x01	; 1
 278:	9d 01       	movw	r18, r26
 27a:	28 1b       	sub	r18, r24
 27c:	39 0b       	sbc	r19, r25
	
	counter = (counter + 1) % 255; // ╧ЁхфюҐтЁрїхэшх яхЁхяюыэхэш 
 27e:	80 91 c1 01 	lds	r24, 0x01C1	; 0x8001c1 <counter.1812>
 282:	90 e0       	ldi	r25, 0x00	; 0
 284:	01 96       	adiw	r24, 0x01	; 1
 286:	6f ef       	ldi	r22, 0xFF	; 255
 288:	70 e0       	ldi	r23, 0x00	; 0
 28a:	0e 94 0c 03 	call	0x618	; 0x618 <__divmodhi4>
 28e:	80 93 c1 01 	sts	0x01C1, r24	; 0x8001c1 <counter.1812>

	if (counter % blinkCyclesNumber == 0) {
 292:	9d ec       	ldi	r25, 0xCD	; 205
 294:	89 9f       	mul	r24, r25
 296:	91 2d       	mov	r25, r1
 298:	11 24       	eor	r1, r1
 29a:	92 95       	swap	r25
 29c:	9f 70       	andi	r25, 0x0F	; 15
 29e:	99 0f       	add	r25, r25
 2a0:	99 0f       	add	r25, r25
 2a2:	49 2f       	mov	r20, r25
 2a4:	44 0f       	add	r20, r20
 2a6:	44 0f       	add	r20, r20
 2a8:	94 0f       	add	r25, r20
 2aa:	98 13       	cpse	r25, r24
 2ac:	07 c0       	rjmp	.+14     	; 0x2bc <LCD_Blink+0x6c>
		toggle = !toggle; // ╠хэ хь ёюёҐю эшх
 2ae:	81 e0       	ldi	r24, 0x01	; 1
 2b0:	90 91 c0 01 	lds	r25, 0x01C0	; 0x8001c0 <__data_end>
 2b4:	91 11       	cpse	r25, r1
 2b6:	80 e0       	ldi	r24, 0x00	; 0
 2b8:	80 93 c0 01 	sts	0x01C0, r24	; 0x8001c0 <__data_end>
	}

	if (toggle) {
 2bc:	80 91 c0 01 	lds	r24, 0x01C0	; 0x8001c0 <__data_end>
 2c0:	88 23       	and	r24, r24
 2c2:	29 f1       	breq	.+74     	; 0x30e <LCD_Blink+0xbe>
 2c4:	cd b6       	in	r12, 0x3d	; 61
 2c6:	de b6       	in	r13, 0x3e	; 62
 2c8:	79 01       	movw	r14, r18
 2ca:	ff 24       	eor	r15, r15
		// ╤ючфрхь ёҐЁюъґ шч яЁюсхыют Ґръющ цх фышэ√, ъръ buffer
		char blankString[length + 1];
 2cc:	c7 01       	movw	r24, r14
 2ce:	01 96       	adiw	r24, 0x01	; 1
 2d0:	2d b7       	in	r18, 0x3d	; 61
 2d2:	3e b7       	in	r19, 0x3e	; 62
 2d4:	28 1b       	sub	r18, r24
 2d6:	39 0b       	sbc	r19, r25
 2d8:	0f b6       	in	r0, 0x3f	; 63
 2da:	f8 94       	cli
 2dc:	3e bf       	out	0x3e, r19	; 62
 2de:	0f be       	out	0x3f, r0	; 63
 2e0:	2d bf       	out	0x3d, r18	; 61
 2e2:	8d b7       	in	r24, 0x3d	; 61
 2e4:	9e b7       	in	r25, 0x3e	; 62
 2e6:	01 96       	adiw	r24, 0x01	; 1
 2e8:	5c 01       	movw	r10, r24
		memset(blankString, ' ', length);
 2ea:	a7 01       	movw	r20, r14
 2ec:	60 e2       	ldi	r22, 0x20	; 32
 2ee:	70 e0       	ldi	r23, 0x00	; 0
 2f0:	0e 94 34 03 	call	0x668	; 0x668 <memset>
		blankString[length] = '\0'; // ╟ртхЁЇрхь ёҐЁюъґ эґыхт√ь ёшьтюыюь
 2f4:	f5 01       	movw	r30, r10
 2f6:	ee 0d       	add	r30, r14
 2f8:	ff 1d       	adc	r31, r15
 2fa:	10 82       	st	Z, r1
		LCD_Print(blankString); // ╧хірҐрхь яґёҐґ■ ёҐЁюъґ
 2fc:	c5 01       	movw	r24, r10
 2fe:	0e 94 1b 01 	call	0x236	; 0x236 <LCD_Print>
 302:	0f b6       	in	r0, 0x3f	; 63
 304:	f8 94       	cli
 306:	de be       	out	0x3e, r13	; 62
 308:	0f be       	out	0x3f, r0	; 63
 30a:	cd be       	out	0x3d, r12	; 61
 30c:	03 c0       	rjmp	.+6      	; 0x314 <LCD_Blink+0xc4>
		} else {
		LCD_Print(buffer); // ╧хірҐрхь ёҐЁюъґ
 30e:	cf 01       	movw	r24, r30
 310:	0e 94 1b 01 	call	0x236	; 0x236 <LCD_Print>
	}
}
 314:	0f b6       	in	r0, 0x3f	; 63
 316:	f8 94       	cli
 318:	1e bf       	out	0x3e, r17	; 62
 31a:	0f be       	out	0x3f, r0	; 63
 31c:	0d bf       	out	0x3d, r16	; 61
 31e:	df 91       	pop	r29
 320:	cf 91       	pop	r28
 322:	1f 91       	pop	r17
 324:	0f 91       	pop	r16
 326:	ff 90       	pop	r15
 328:	ef 90       	pop	r14
 32a:	df 90       	pop	r13
 32c:	cf 90       	pop	r12
 32e:	bf 90       	pop	r11
 330:	af 90       	pop	r10
 332:	08 95       	ret

00000334 <LCD_PrintTwoLines>:


void LCD_PrintTwoLines(char* firstLineText, char* secondLineText, int blink) {
 334:	ef 92       	push	r14
 336:	ff 92       	push	r15
 338:	0f 93       	push	r16
 33a:	1f 93       	push	r17
 33c:	cf 93       	push	r28
 33e:	df 93       	push	r29
 340:	8c 01       	movw	r16, r24
 342:	7b 01       	movw	r14, r22
 344:	ea 01       	movw	r28, r20
	
		LCD_SetCursor(0, 0);
 346:	60 e0       	ldi	r22, 0x00	; 0
 348:	80 e0       	ldi	r24, 0x00	; 0
 34a:	0e 94 fc 00 	call	0x1f8	; 0x1f8 <LCD_SetCursor>
		LCD_Print(firstLineText);
 34e:	c8 01       	movw	r24, r16
 350:	0e 94 1b 01 	call	0x236	; 0x236 <LCD_Print>
		LCD_SetCursor(0, 1);
 354:	61 e0       	ldi	r22, 0x01	; 1
 356:	80 e0       	ldi	r24, 0x00	; 0
 358:	0e 94 fc 00 	call	0x1f8	; 0x1f8 <LCD_SetCursor>
		
		if (blink == 1)	{
 35c:	21 97       	sbiw	r28, 0x01	; 1
 35e:	21 f4       	brne	.+8      	; 0x368 <LCD_PrintTwoLines+0x34>
			LCD_Blink(secondLineText);
 360:	c7 01       	movw	r24, r14
 362:	0e 94 28 01 	call	0x250	; 0x250 <LCD_Blink>
 366:	03 c0       	rjmp	.+6      	; 0x36e <LCD_PrintTwoLines+0x3a>
		}
		else {
			LCD_Print(secondLineText);			
 368:	c7 01       	movw	r24, r14
 36a:	0e 94 1b 01 	call	0x236	; 0x236 <LCD_Print>
		}
}
 36e:	df 91       	pop	r29
 370:	cf 91       	pop	r28
 372:	1f 91       	pop	r17
 374:	0f 91       	pop	r16
 376:	ff 90       	pop	r15
 378:	ef 90       	pop	r14
 37a:	08 95       	ret

0000037c <main>:
#include "uart.h"

char firstLineText[16];
char secondLineText[16];

int main(void) {
 37c:	cf 93       	push	r28
 37e:	df 93       	push	r29
 380:	00 d0       	rcall	.+0      	; 0x382 <main+0x6>
 382:	00 d0       	rcall	.+0      	; 0x384 <main+0x8>
 384:	00 d0       	rcall	.+0      	; 0x386 <main+0xa>
 386:	cd b7       	in	r28, 0x3d	; 61
 388:	de b7       	in	r29, 0x3e	; 62
	I2C_Init();
 38a:	0e 94 53 00 	call	0xa6	; 0xa6 <I2C_Init>
	LCD_Init();
 38e:	0e 94 bb 00 	call	0x176	; 0x176 <LCD_Init>
	LCD_Clear();
 392:	0e 94 f2 00 	call	0x1e4	; 0x1e4 <LCD_Clear>
	UART_init();
 396:	0e 94 b4 02 	call	0x568	; 0x568 <UART_init>
	initRailRoadSwitch();
 39a:	0e 94 21 02 	call	0x442	; 0x442 <initRailRoadSwitch>
	while (1) {
		uint8_t received_packet[6]; // ┴ґЄхЁ фы  яЁшхьр яръхҐр
		uint8_t cmd_code = 0xFF;    // ╩юф ъюьрэф√

		// ╬цшфрэшх яхЁтюую срщҐр (STX)
		if (UART_receive() == 0x02) {
 39e:	0e 94 c0 02 	call	0x580	; 0x580 <UART_receive>
 3a2:	82 30       	cpi	r24, 0x02	; 2
 3a4:	f9 f4       	brne	.+62     	; 0x3e4 <main+0x68>
			received_packet[0] = 0x02; // ╟ряюьшэрхь STX
 3a6:	89 83       	std	Y+1, r24	; 0x01

			// ╧юыґірхь юёҐры№э√х 5 срщҐют яръхҐр
			for (uint8_t i = 1; i < 6; i++) {
 3a8:	11 e0       	ldi	r17, 0x01	; 1
 3aa:	16 30       	cpi	r17, 0x06	; 6
 3ac:	68 f4       	brcc	.+26     	; 0x3c8 <main+0x4c>
				received_packet[i] = UART_receive();
 3ae:	e1 2e       	mov	r14, r17
 3b0:	f1 2c       	mov	r15, r1
 3b2:	0e 94 c0 02 	call	0x580	; 0x580 <UART_receive>
 3b6:	e1 e0       	ldi	r30, 0x01	; 1
 3b8:	f0 e0       	ldi	r31, 0x00	; 0
 3ba:	ec 0f       	add	r30, r28
 3bc:	fd 1f       	adc	r31, r29
 3be:	ee 0d       	add	r30, r14
 3c0:	ff 1d       	adc	r31, r15
 3c2:	80 83       	st	Z, r24
		// ╬цшфрэшх яхЁтюую срщҐр (STX)
		if (UART_receive() == 0x02) {
			received_packet[0] = 0x02; // ╟ряюьшэрхь STX

			// ╧юыґірхь юёҐры№э√х 5 срщҐют яръхҐр
			for (uint8_t i = 1; i < 6; i++) {
 3c4:	1f 5f       	subi	r17, 0xFF	; 255
 3c6:	f1 cf       	rjmp	.-30     	; 0x3aa <main+0x2e>
				received_packet[i] = UART_receive();
			}

			// ╧ЁютхЁ хь ъюЁЁхъҐэюёҐ№ яръхҐр (CRC, ёҐЁґъҐґЁр)
			if (crc8(&received_packet[1], 3) == received_packet[4]) {
 3c8:	63 e0       	ldi	r22, 0x03	; 3
 3ca:	ce 01       	movw	r24, r28
 3cc:	02 96       	adiw	r24, 0x02	; 2
 3ce:	0e 94 c7 02 	call	0x58e	; 0x58e <crc8>
 3d2:	9d 81       	ldd	r25, Y+5	; 0x05
 3d4:	89 13       	cpse	r24, r25
 3d6:	08 c0       	rjmp	.+16     	; 0x3e8 <main+0x6c>
				process_command(received_packet);
 3d8:	ce 01       	movw	r24, r28
 3da:	01 96       	adiw	r24, 0x01	; 1
 3dc:	0e 94 e2 02 	call	0x5c4	; 0x5c4 <process_command>
				cmd_code = received_packet[1]; // ╧Ёртшы№э√щ срщҐ ъюьрэф√
 3e0:	9a 81       	ldd	r25, Y+2	; 0x02
 3e2:	03 c0       	rjmp	.+6      	; 0x3ea <main+0x6e>
	UART_init();
	initRailRoadSwitch();

	while (1) {
		uint8_t received_packet[6]; // ┴ґЄхЁ фы  яЁшхьр яръхҐр
		uint8_t cmd_code = 0xFF;    // ╩юф ъюьрэф√
 3e4:	9f ef       	ldi	r25, 0xFF	; 255
 3e6:	01 c0       	rjmp	.+2      	; 0x3ea <main+0x6e>
 3e8:	9f ef       	ldi	r25, 0xFF	; 255
				cmd_code = received_packet[1]; // ╧Ёртшы№э√щ срщҐ ъюьрэф√
			}
		}

		// ┬√тюфшь фрээ√х эр LCD
		snprintf(firstLineText, sizeof(firstLineText), "Control Panel");
 3ea:	8e e0       	ldi	r24, 0x0E	; 14
 3ec:	e8 e5       	ldi	r30, 0x58	; 88
 3ee:	f1 e0       	ldi	r31, 0x01	; 1
 3f0:	a2 ed       	ldi	r26, 0xD2	; 210
 3f2:	b1 e0       	ldi	r27, 0x01	; 1
 3f4:	01 90       	ld	r0, Z+
 3f6:	0d 92       	st	X+, r0
 3f8:	8a 95       	dec	r24
 3fa:	e1 f7       	brne	.-8      	; 0x3f4 <main+0x78>
		snprintf(secondLineText, sizeof(secondLineText), "Cmd: %02X", cmd_code);
 3fc:	1f 92       	push	r1
 3fe:	9f 93       	push	r25
 400:	86 e6       	ldi	r24, 0x66	; 102
 402:	91 e0       	ldi	r25, 0x01	; 1
 404:	9f 93       	push	r25
 406:	8f 93       	push	r24
 408:	1f 92       	push	r1
 40a:	80 e1       	ldi	r24, 0x10	; 16
 40c:	8f 93       	push	r24
 40e:	82 ec       	ldi	r24, 0xC2	; 194
 410:	91 e0       	ldi	r25, 0x01	; 1
 412:	9f 93       	push	r25
 414:	8f 93       	push	r24
 416:	0e 94 3b 03 	call	0x676	; 0x676 <snprintf>
		LCD_PrintTwoLines(firstLineText, secondLineText, 0);
 41a:	40 e0       	ldi	r20, 0x00	; 0
 41c:	50 e0       	ldi	r21, 0x00	; 0
 41e:	62 ec       	ldi	r22, 0xC2	; 194
 420:	71 e0       	ldi	r23, 0x01	; 1
 422:	82 ed       	ldi	r24, 0xD2	; 210
 424:	91 e0       	ldi	r25, 0x01	; 1
 426:	0e 94 9a 01 	call	0x334	; 0x334 <LCD_PrintTwoLines>
 42a:	83 ec       	ldi	r24, 0xC3	; 195
 42c:	99 e0       	ldi	r25, 0x09	; 9
 42e:	01 97       	sbiw	r24, 0x01	; 1
 430:	f1 f7       	brne	.-4      	; 0x42e <__EEPROM_REGION_LENGTH__+0x2e>
 432:	00 c0       	rjmp	.+0      	; 0x434 <__EEPROM_REGION_LENGTH__+0x34>
 434:	00 00       	nop
	LCD_Init();
	LCD_Clear();
	UART_init();
	initRailRoadSwitch();

	while (1) {
 436:	0f b6       	in	r0, 0x3f	; 63
 438:	f8 94       	cli
 43a:	de bf       	out	0x3e, r29	; 62
 43c:	0f be       	out	0x3f, r0	; 63
 43e:	cd bf       	out	0x3d, r28	; 61
 440:	ae cf       	rjmp	.-164    	; 0x39e <main+0x22>

00000442 <initRailRoadSwitch>:
		PORTD |= (1 << SIG);
		_delay_ms(SWITCH_PAUSE_TIME);
		PORTD &= ~(1 << SIG);
		_delay_ms(SWITCH_PAUSE_TIME);
	}
}
 442:	84 b1       	in	r24, 0x04	; 4
 444:	8d 61       	ori	r24, 0x1D	; 29
 446:	84 b9       	out	0x04, r24	; 4
 448:	8a b1       	in	r24, 0x0a	; 10
 44a:	80 68       	ori	r24, 0x80	; 128
 44c:	8a b9       	out	0x0a, r24	; 10
 44e:	85 b1       	in	r24, 0x05	; 5
 450:	82 7e       	andi	r24, 0xE2	; 226
 452:	85 b9       	out	0x05, r24	; 5
 454:	8b b1       	in	r24, 0x0b	; 11
 456:	8f 77       	andi	r24, 0x7F	; 127
 458:	8b b9       	out	0x0b, r24	; 11
 45a:	08 95       	ret

0000045c <selectChannel>:
 45c:	9f ef       	ldi	r25, 0xFF	; 255
 45e:	98 0f       	add	r25, r24
 460:	90 31       	cpi	r25, 0x10	; 16
 462:	60 f4       	brcc	.+24     	; 0x47c <selectChannel+0x20>
 464:	95 b1       	in	r25, 0x05	; 5
 466:	92 7e       	andi	r25, 0xE2	; 226
 468:	95 b9       	out	0x05, r25	; 5
 46a:	95 b1       	in	r25, 0x05	; 5
 46c:	e8 2f       	mov	r30, r24
 46e:	f0 e0       	ldi	r31, 0x00	; 0
 470:	e2 55       	subi	r30, 0x52	; 82
 472:	fe 4f       	sbci	r31, 0xFE	; 254
 474:	80 81       	ld	r24, Z
 476:	8d 71       	andi	r24, 0x1D	; 29
 478:	89 2b       	or	r24, r25
 47a:	85 b9       	out	0x05, r24	; 5
 47c:	08 95       	ret

0000047e <setPath>:

	PORTB &= ~SWITCH_MASK;  // ╤сЁюё Ґхъґїхую ёюёҐю эш 
	PORTB |= (SWITCH_MASKS[channel - 1] & SWITCH_MASK); // ╩юЁЁхъҐэ√щ фюёҐґя ъ ьрёёштґ
}

void setPath(uint8_t* path, uint8_t length) {
 47e:	0f 93       	push	r16
 480:	1f 93       	push	r17
 482:	cf 93       	push	r28
 484:	df 93       	push	r29
 486:	8c 01       	movw	r16, r24
 488:	d6 2f       	mov	r29, r22
	for (uint8_t i = 0; i < length; i++) {
 48a:	c0 e0       	ldi	r28, 0x00	; 0
 48c:	1f c0       	rjmp	.+62     	; 0x4cc <setPath+0x4e>
		selectChannel(path[i]); // ┬√сшЁрхь ёҐЁхыъґ
 48e:	f8 01       	movw	r30, r16
 490:	ec 0f       	add	r30, r28
 492:	f1 1d       	adc	r31, r1
 494:	80 81       	ld	r24, Z
 496:	0e 94 2e 02 	call	0x45c	; 0x45c <selectChannel>
		PORTD |= (1 << SIG);    // └ъҐштшЁґхь ёҐЁхыюіэ√щ ьхєрэшчь
 49a:	8b b1       	in	r24, 0x0b	; 11
 49c:	80 68       	ori	r24, 0x80	; 128
 49e:	8b b9       	out	0x0b, r24	; 11
 4a0:	2f e9       	ldi	r18, 0x9F	; 159
 4a2:	86 e8       	ldi	r24, 0x86	; 134
 4a4:	91 e0       	ldi	r25, 0x01	; 1
 4a6:	21 50       	subi	r18, 0x01	; 1
 4a8:	80 40       	sbci	r24, 0x00	; 0
 4aa:	90 40       	sbci	r25, 0x00	; 0
 4ac:	e1 f7       	brne	.-8      	; 0x4a6 <setPath+0x28>
 4ae:	00 c0       	rjmp	.+0      	; 0x4b0 <setPath+0x32>
 4b0:	00 00       	nop
		_delay_ms(SWITCH_PAUSE_TIME);         // ╞ф╕ь яхЁхъы■іхэш 
		PORTD &= ~(1 << SIG);   // ╬Ґъы■ірхь ёшуэры
 4b2:	8b b1       	in	r24, 0x0b	; 11
 4b4:	8f 77       	andi	r24, 0x7F	; 127
 4b6:	8b b9       	out	0x0b, r24	; 11
 4b8:	2f e9       	ldi	r18, 0x9F	; 159
 4ba:	86 e8       	ldi	r24, 0x86	; 134
 4bc:	91 e0       	ldi	r25, 0x01	; 1
 4be:	21 50       	subi	r18, 0x01	; 1
 4c0:	80 40       	sbci	r24, 0x00	; 0
 4c2:	90 40       	sbci	r25, 0x00	; 0
 4c4:	e1 f7       	brne	.-8      	; 0x4be <setPath+0x40>
 4c6:	00 c0       	rjmp	.+0      	; 0x4c8 <setPath+0x4a>
 4c8:	00 00       	nop
	PORTB &= ~SWITCH_MASK;  // ╤сЁюё Ґхъґїхую ёюёҐю эш 
	PORTB |= (SWITCH_MASKS[channel - 1] & SWITCH_MASK); // ╩юЁЁхъҐэ√щ фюёҐґя ъ ьрёёштґ
}

void setPath(uint8_t* path, uint8_t length) {
	for (uint8_t i = 0; i < length; i++) {
 4ca:	cf 5f       	subi	r28, 0xFF	; 255
 4cc:	cd 17       	cp	r28, r29
 4ce:	f8 f2       	brcs	.-66     	; 0x48e <setPath+0x10>
		PORTD |= (1 << SIG);    // └ъҐштшЁґхь ёҐЁхыюіэ√щ ьхєрэшчь
		_delay_ms(SWITCH_PAUSE_TIME);         // ╞ф╕ь яхЁхъы■іхэш 
		PORTD &= ~(1 << SIG);   // ╬Ґъы■ірхь ёшуэры
		_delay_ms(SWITCH_PAUSE_TIME);
	}
}
 4d0:	df 91       	pop	r29
 4d2:	cf 91       	pop	r28
 4d4:	1f 91       	pop	r17
 4d6:	0f 91       	pop	r16
 4d8:	08 95       	ret

000004da <stopLocomotive>:
	
	PORTD |= (1 << SIG);  // ┬ъы■ірхь ёшуэры фтшцхэш 
}

void stopLocomotive() {
    PORTD &= ~(1 << SIG); // ╬Ґъы■ірхь ёшуэры SIG яхЁхф юішёҐъющ ърэрыют
 4da:	8b b1       	in	r24, 0x0b	; 11
 4dc:	8f 77       	andi	r24, 0x7F	; 127
 4de:	8b b9       	out	0x0b, r24	; 11
 4e0:	87 ea       	ldi	r24, 0xA7	; 167
 4e2:	91 e6       	ldi	r25, 0x61	; 97
 4e4:	01 97       	sbiw	r24, 0x01	; 1
 4e6:	f1 f7       	brne	.-4      	; 0x4e4 <stopLocomotive+0xa>
 4e8:	00 c0       	rjmp	.+0      	; 0x4ea <stopLocomotive+0x10>
 4ea:	00 00       	nop
 4ec:	08 95       	ret

000004ee <moveLocomotive>:
	clearChannels();

	setPath(routes[index].path, routes[index].length);
}

void moveLocomotive(uint8_t forward) {
 4ee:	cf 93       	push	r28
 4f0:	c8 2f       	mov	r28, r24
	stopLocomotive();
 4f2:	0e 94 6d 02 	call	0x4da	; 0x4da <stopLocomotive>
	
	uint8_t channel = forward ? 15 : 14;  // 15 - тяхЁ╕ф, 14 - эрчрф
 4f6:	cc 23       	and	r28, r28
 4f8:	11 f0       	breq	.+4      	; 0x4fe <moveLocomotive+0x10>
 4fa:	8f e0       	ldi	r24, 0x0F	; 15
 4fc:	01 c0       	rjmp	.+2      	; 0x500 <moveLocomotive+0x12>
 4fe:	8e e0       	ldi	r24, 0x0E	; 14

	selectChannel(channel);
 500:	0e 94 2e 02 	call	0x45c	; 0x45c <selectChannel>
	
	PORTD |= (1 << SIG);  // ┬ъы■ірхь ёшуэры фтшцхэш 
 504:	8b b1       	in	r24, 0x0b	; 11
 506:	80 68       	ori	r24, 0x80	; 128
 508:	8b b9       	out	0x0b, r24	; 11
}
 50a:	cf 91       	pop	r28
 50c:	08 95       	ret

0000050e <clearChannels>:
    PORTD &= ~(1 << SIG); // ╬Ґъы■ірхь ёшуэры SIG яхЁхф юішёҐъющ ърэрыют
    _delay_ms(100); // ─рхь эхьэюую тЁхьхэш эр юҐъы■іхэшх
}

void clearChannels() {
	PORTD &= ~(1 << SIG);  // ╬Ґъы■ірхь ёшуэры фтшцхэш 
 50e:	8b b1       	in	r24, 0x0b	; 11
 510:	8f 77       	andi	r24, 0x7F	; 127
 512:	8b b9       	out	0x0b, r24	; 11
	PORTB &= ~SWITCH_MASK; // ╤сЁрё√трхь тёх ърэры√ (тъы■ір  14 ш 15)
 514:	85 b1       	in	r24, 0x05	; 5
 516:	82 7e       	andi	r24, 0xE2	; 226
 518:	85 b9       	out	0x05, r24	; 5
 51a:	08 95       	ret

0000051c <setRouteByIndex>:
		PORTD &= ~(1 << SIG);   // ╬Ґъы■ірхь ёшуэры
		_delay_ms(SWITCH_PAUSE_TIME);
	}
}

void setRouteByIndex(uint8_t index) {
 51c:	cf 93       	push	r28
 51e:	df 93       	push	r29
	if (index >= NUM_ROUTES || routes[index].length > 8) return;
 520:	90 91 70 01 	lds	r25, 0x0170	; 0x800170 <NUM_ROUTES>
 524:	89 17       	cp	r24, r25
 526:	e8 f4       	brcc	.+58     	; 0x562 <setRouteByIndex+0x46>
 528:	c8 2f       	mov	r28, r24
 52a:	d0 e0       	ldi	r29, 0x00	; 0
 52c:	8b e0       	ldi	r24, 0x0B	; 11
 52e:	8c 9f       	mul	r24, r28
 530:	f0 01       	movw	r30, r0
 532:	8d 9f       	mul	r24, r29
 534:	f0 0d       	add	r31, r0
 536:	11 24       	eor	r1, r1
 538:	e0 50       	subi	r30, 0x00	; 0
 53a:	ff 4f       	sbci	r31, 0xFF	; 255
 53c:	82 85       	ldd	r24, Z+10	; 0x0a
 53e:	89 30       	cpi	r24, 0x09	; 9
 540:	80 f4       	brcc	.+32     	; 0x562 <setRouteByIndex+0x46>

	clearChannels();
 542:	0e 94 87 02 	call	0x50e	; 0x50e <clearChannels>

	setPath(routes[index].path, routes[index].length);
 546:	2b e0       	ldi	r18, 0x0B	; 11
 548:	2c 9f       	mul	r18, r28
 54a:	c0 01       	movw	r24, r0
 54c:	2d 9f       	mul	r18, r29
 54e:	90 0d       	add	r25, r0
 550:	11 24       	eor	r1, r1
 552:	fc 01       	movw	r30, r24
 554:	e0 50       	subi	r30, 0x00	; 0
 556:	ff 4f       	sbci	r31, 0xFF	; 255
 558:	62 85       	ldd	r22, Z+10	; 0x0a
 55a:	8e 5f       	subi	r24, 0xFE	; 254
 55c:	9e 4f       	sbci	r25, 0xFE	; 254
 55e:	0e 94 3f 02 	call	0x47e	; 0x47e <setPath>
}
 562:	df 91       	pop	r29
 564:	cf 91       	pop	r28
 566:	08 95       	ret

00000568 <UART_init>:
	packet[5] = 0x03;   // ETX (ъюэхІ яръхҐр)

	for (uint8_t i = 0; i < 6; i++) {
		UART_send(packet[i]);
	}
}
 568:	10 92 c5 00 	sts	0x00C5, r1	; 0x8000c5 <__TEXT_REGION_LENGTH__+0x7f80c5>
 56c:	87 e6       	ldi	r24, 0x67	; 103
 56e:	80 93 c4 00 	sts	0x00C4, r24	; 0x8000c4 <__TEXT_REGION_LENGTH__+0x7f80c4>
 572:	88 e1       	ldi	r24, 0x18	; 24
 574:	80 93 c1 00 	sts	0x00C1, r24	; 0x8000c1 <__TEXT_REGION_LENGTH__+0x7f80c1>
 578:	86 e0       	ldi	r24, 0x06	; 6
 57a:	80 93 c2 00 	sts	0x00C2, r24	; 0x8000c2 <__TEXT_REGION_LENGTH__+0x7f80c2>
 57e:	08 95       	ret

00000580 <UART_receive>:
 580:	80 91 c0 00 	lds	r24, 0x00C0	; 0x8000c0 <__TEXT_REGION_LENGTH__+0x7f80c0>
 584:	88 23       	and	r24, r24
 586:	e4 f7       	brge	.-8      	; 0x580 <UART_receive>
 588:	80 91 c6 00 	lds	r24, 0x00C6	; 0x8000c6 <__TEXT_REGION_LENGTH__+0x7f80c6>
 58c:	08 95       	ret

0000058e <crc8>:
 58e:	ac 01       	movw	r20, r24
 590:	30 e0       	ldi	r19, 0x00	; 0
 592:	8f ef       	ldi	r24, 0xFF	; 255
 594:	14 c0       	rjmp	.+40     	; 0x5be <crc8+0x30>
 596:	fa 01       	movw	r30, r20
 598:	e3 0f       	add	r30, r19
 59a:	f1 1d       	adc	r31, r1
 59c:	90 81       	ld	r25, Z
 59e:	89 27       	eor	r24, r25
 5a0:	20 e0       	ldi	r18, 0x00	; 0
 5a2:	0a c0       	rjmp	.+20     	; 0x5b8 <crc8+0x2a>
 5a4:	88 23       	and	r24, r24
 5a6:	34 f4       	brge	.+12     	; 0x5b4 <crc8+0x26>
 5a8:	90 e0       	ldi	r25, 0x00	; 0
 5aa:	88 0f       	add	r24, r24
 5ac:	99 1f       	adc	r25, r25
 5ae:	97 e0       	ldi	r25, 0x07	; 7
 5b0:	89 27       	eor	r24, r25
 5b2:	01 c0       	rjmp	.+2      	; 0x5b6 <crc8+0x28>
 5b4:	88 0f       	add	r24, r24
 5b6:	2f 5f       	subi	r18, 0xFF	; 255
 5b8:	28 30       	cpi	r18, 0x08	; 8
 5ba:	a0 f3       	brcs	.-24     	; 0x5a4 <crc8+0x16>
 5bc:	3f 5f       	subi	r19, 0xFF	; 255
 5be:	36 17       	cp	r19, r22
 5c0:	50 f3       	brcs	.-44     	; 0x596 <crc8+0x8>
 5c2:	08 95       	ret

000005c4 <process_command>:
		}
	}
	return crc;
}

void process_command(uint8_t *data) {
 5c4:	1f 93       	push	r17
 5c6:	cf 93       	push	r28
 5c8:	df 93       	push	r29
	if (data == NULL) {
 5ca:	00 97       	sbiw	r24, 0x00	; 0
 5cc:	09 f1       	breq	.+66     	; 0x610 <process_command+0x4c>
 5ce:	fc 01       	movw	r30, r24
		return; // ╧ЁютхЁър эр яґёҐющ ґърчрҐхы№
	}

	uint8_t cmd = data[1];
 5d0:	d1 81       	ldd	r29, Z+1	; 0x01
	uint8_t table_id = data[2];
 5d2:	12 81       	ldd	r17, Z+2	; 0x02
	uint8_t param = data[3];
	uint8_t received_crc = data[4];
 5d4:	c4 81       	ldd	r28, Z+4	; 0x04

	// ╧ЁютхЁ хь ъюэҐЁюы№эґ■ ёґььґ
	if (crc8(&data[1], 3) != received_crc) {
 5d6:	63 e0       	ldi	r22, 0x03	; 3
 5d8:	01 96       	adiw	r24, 0x01	; 1
 5da:	0e 94 c7 02 	call	0x58e	; 0x58e <crc8>
 5de:	c8 13       	cpse	r28, r24
 5e0:	17 c0       	rjmp	.+46     	; 0x610 <process_command+0x4c>
		return; // ╬Їшсър CRC, шуэюЁшЁґхь яръхҐ
	}

	switch (cmd) {
 5e2:	d1 32       	cpi	r29, 0x21	; 33
 5e4:	89 f0       	breq	.+34     	; 0x608 <process_command+0x44>
 5e6:	d0 33       	cpi	r29, 0x30	; 48
 5e8:	19 f0       	breq	.+6      	; 0x5f0 <process_command+0x2c>
 5ea:	d0 32       	cpi	r29, 0x20	; 32
 5ec:	89 f4       	brne	.+34     	; 0x610 <process_command+0x4c>
 5ee:	03 c0       	rjmp	.+6      	; 0x5f6 <process_command+0x32>
		
	case 0x30: // EMERGENCY_STOP
		stopLocomotive();
 5f0:	0e 94 6d 02 	call	0x4da	; 0x4da <stopLocomotive>
		//send_command(0x40, 0x30, 0x00); // ╧юфҐтхЁцфхэшх ¤ъёҐЁхээющ юёҐрэютъш
		return; // ╟ртхЁЇрхь т√яюыэхэшх схч юҐяЁртъш COMMAND_COMPLETE
 5f4:	0d c0       	rjmp	.+26     	; 0x610 <process_command+0x4c>

	case 0x20: // MOVE_FORWARD
	setRouteByIndex(table_id);
 5f6:	81 2f       	mov	r24, r17
 5f8:	90 e0       	ldi	r25, 0x00	; 0
 5fa:	0e 94 8e 02 	call	0x51c	; 0x51c <setRouteByIndex>
		moveLocomotive(1);
 5fe:	81 e0       	ldi	r24, 0x01	; 1
 600:	90 e0       	ldi	r25, 0x00	; 0
 602:	0e 94 77 02 	call	0x4ee	; 0x4ee <moveLocomotive>
		break;
 606:	04 c0       	rjmp	.+8      	; 0x610 <process_command+0x4c>

		case 0x21: // MOVE_BACKWARD
		moveLocomotive(0);
 608:	80 e0       	ldi	r24, 0x00	; 0
 60a:	90 e0       	ldi	r25, 0x00	; 0
 60c:	0e 94 77 02 	call	0x4ee	; 0x4ee <moveLocomotive>
		break;
	}

	// ╬ҐіхҐ ю чртхЁЇхэшш ъюьрэф√
	//send_command(0x50, cmd, table_id);
}
 610:	df 91       	pop	r29
 612:	cf 91       	pop	r28
 614:	1f 91       	pop	r17
 616:	08 95       	ret

00000618 <__divmodhi4>:
 618:	97 fb       	bst	r25, 7
 61a:	07 2e       	mov	r0, r23
 61c:	16 f4       	brtc	.+4      	; 0x622 <__divmodhi4+0xa>
 61e:	00 94       	com	r0
 620:	07 d0       	rcall	.+14     	; 0x630 <__divmodhi4_neg1>
 622:	77 fd       	sbrc	r23, 7
 624:	09 d0       	rcall	.+18     	; 0x638 <__divmodhi4_neg2>
 626:	0e 94 20 03 	call	0x640	; 0x640 <__udivmodhi4>
 62a:	07 fc       	sbrc	r0, 7
 62c:	05 d0       	rcall	.+10     	; 0x638 <__divmodhi4_neg2>
 62e:	3e f4       	brtc	.+14     	; 0x63e <__divmodhi4_exit>

00000630 <__divmodhi4_neg1>:
 630:	90 95       	com	r25
 632:	81 95       	neg	r24
 634:	9f 4f       	sbci	r25, 0xFF	; 255
 636:	08 95       	ret

00000638 <__divmodhi4_neg2>:
 638:	70 95       	com	r23
 63a:	61 95       	neg	r22
 63c:	7f 4f       	sbci	r23, 0xFF	; 255

0000063e <__divmodhi4_exit>:
 63e:	08 95       	ret

00000640 <__udivmodhi4>:
 640:	aa 1b       	sub	r26, r26
 642:	bb 1b       	sub	r27, r27
 644:	51 e1       	ldi	r21, 0x11	; 17
 646:	07 c0       	rjmp	.+14     	; 0x656 <__udivmodhi4_ep>

00000648 <__udivmodhi4_loop>:
 648:	aa 1f       	adc	r26, r26
 64a:	bb 1f       	adc	r27, r27
 64c:	a6 17       	cp	r26, r22
 64e:	b7 07       	cpc	r27, r23
 650:	10 f0       	brcs	.+4      	; 0x656 <__udivmodhi4_ep>
 652:	a6 1b       	sub	r26, r22
 654:	b7 0b       	sbc	r27, r23

00000656 <__udivmodhi4_ep>:
 656:	88 1f       	adc	r24, r24
 658:	99 1f       	adc	r25, r25
 65a:	5a 95       	dec	r21
 65c:	a9 f7       	brne	.-22     	; 0x648 <__udivmodhi4_loop>
 65e:	80 95       	com	r24
 660:	90 95       	com	r25
 662:	bc 01       	movw	r22, r24
 664:	cd 01       	movw	r24, r26
 666:	08 95       	ret

00000668 <memset>:
 668:	dc 01       	movw	r26, r24
 66a:	01 c0       	rjmp	.+2      	; 0x66e <memset+0x6>
 66c:	6d 93       	st	X+, r22
 66e:	41 50       	subi	r20, 0x01	; 1
 670:	50 40       	sbci	r21, 0x00	; 0
 672:	e0 f7       	brcc	.-8      	; 0x66c <memset+0x4>
 674:	08 95       	ret

00000676 <snprintf>:
 676:	ae e0       	ldi	r26, 0x0E	; 14
 678:	b0 e0       	ldi	r27, 0x00	; 0
 67a:	e1 e4       	ldi	r30, 0x41	; 65
 67c:	f3 e0       	ldi	r31, 0x03	; 3
 67e:	0c 94 0a 06 	jmp	0xc14	; 0xc14 <__prologue_saves__+0x1c>
 682:	0d 89       	ldd	r16, Y+21	; 0x15
 684:	1e 89       	ldd	r17, Y+22	; 0x16
 686:	8f 89       	ldd	r24, Y+23	; 0x17
 688:	98 8d       	ldd	r25, Y+24	; 0x18
 68a:	26 e0       	ldi	r18, 0x06	; 6
 68c:	2c 83       	std	Y+4, r18	; 0x04
 68e:	1a 83       	std	Y+2, r17	; 0x02
 690:	09 83       	std	Y+1, r16	; 0x01
 692:	97 ff       	sbrs	r25, 7
 694:	02 c0       	rjmp	.+4      	; 0x69a <snprintf+0x24>
 696:	80 e0       	ldi	r24, 0x00	; 0
 698:	90 e8       	ldi	r25, 0x80	; 128
 69a:	01 97       	sbiw	r24, 0x01	; 1
 69c:	9e 83       	std	Y+6, r25	; 0x06
 69e:	8d 83       	std	Y+5, r24	; 0x05
 6a0:	ae 01       	movw	r20, r28
 6a2:	45 5e       	subi	r20, 0xE5	; 229
 6a4:	5f 4f       	sbci	r21, 0xFF	; 255
 6a6:	69 8d       	ldd	r22, Y+25	; 0x19
 6a8:	7a 8d       	ldd	r23, Y+26	; 0x1a
 6aa:	ce 01       	movw	r24, r28
 6ac:	01 96       	adiw	r24, 0x01	; 1
 6ae:	0e 94 6b 03 	call	0x6d6	; 0x6d6 <vfprintf>
 6b2:	4d 81       	ldd	r20, Y+5	; 0x05
 6b4:	5e 81       	ldd	r21, Y+6	; 0x06
 6b6:	57 fd       	sbrc	r21, 7
 6b8:	0a c0       	rjmp	.+20     	; 0x6ce <snprintf+0x58>
 6ba:	2f 81       	ldd	r18, Y+7	; 0x07
 6bc:	38 85       	ldd	r19, Y+8	; 0x08
 6be:	42 17       	cp	r20, r18
 6c0:	53 07       	cpc	r21, r19
 6c2:	0c f4       	brge	.+2      	; 0x6c6 <snprintf+0x50>
 6c4:	9a 01       	movw	r18, r20
 6c6:	f8 01       	movw	r30, r16
 6c8:	e2 0f       	add	r30, r18
 6ca:	f3 1f       	adc	r31, r19
 6cc:	10 82       	st	Z, r1
 6ce:	2e 96       	adiw	r28, 0x0e	; 14
 6d0:	e4 e0       	ldi	r30, 0x04	; 4
 6d2:	0c 94 26 06 	jmp	0xc4c	; 0xc4c <__epilogue_restores__+0x1c>

000006d6 <vfprintf>:
 6d6:	ab e0       	ldi	r26, 0x0B	; 11
 6d8:	b0 e0       	ldi	r27, 0x00	; 0
 6da:	e1 e7       	ldi	r30, 0x71	; 113
 6dc:	f3 e0       	ldi	r31, 0x03	; 3
 6de:	0c 94 fc 05 	jmp	0xbf8	; 0xbf8 <__prologue_saves__>
 6e2:	6c 01       	movw	r12, r24
 6e4:	7b 01       	movw	r14, r22
 6e6:	8a 01       	movw	r16, r20
 6e8:	fc 01       	movw	r30, r24
 6ea:	17 82       	std	Z+7, r1	; 0x07
 6ec:	16 82       	std	Z+6, r1	; 0x06
 6ee:	83 81       	ldd	r24, Z+3	; 0x03
 6f0:	81 ff       	sbrs	r24, 1
 6f2:	cc c1       	rjmp	.+920    	; 0xa8c <__stack+0x18d>
 6f4:	ce 01       	movw	r24, r28
 6f6:	01 96       	adiw	r24, 0x01	; 1
 6f8:	3c 01       	movw	r6, r24
 6fa:	f6 01       	movw	r30, r12
 6fc:	93 81       	ldd	r25, Z+3	; 0x03
 6fe:	f7 01       	movw	r30, r14
 700:	93 fd       	sbrc	r25, 3
 702:	85 91       	lpm	r24, Z+
 704:	93 ff       	sbrs	r25, 3
 706:	81 91       	ld	r24, Z+
 708:	7f 01       	movw	r14, r30
 70a:	88 23       	and	r24, r24
 70c:	09 f4       	brne	.+2      	; 0x710 <vfprintf+0x3a>
 70e:	ba c1       	rjmp	.+884    	; 0xa84 <__stack+0x185>
 710:	85 32       	cpi	r24, 0x25	; 37
 712:	39 f4       	brne	.+14     	; 0x722 <vfprintf+0x4c>
 714:	93 fd       	sbrc	r25, 3
 716:	85 91       	lpm	r24, Z+
 718:	93 ff       	sbrs	r25, 3
 71a:	81 91       	ld	r24, Z+
 71c:	7f 01       	movw	r14, r30
 71e:	85 32       	cpi	r24, 0x25	; 37
 720:	29 f4       	brne	.+10     	; 0x72c <vfprintf+0x56>
 722:	b6 01       	movw	r22, r12
 724:	90 e0       	ldi	r25, 0x00	; 0
 726:	0e 94 62 05 	call	0xac4	; 0xac4 <fputc>
 72a:	e7 cf       	rjmp	.-50     	; 0x6fa <vfprintf+0x24>
 72c:	91 2c       	mov	r9, r1
 72e:	21 2c       	mov	r2, r1
 730:	31 2c       	mov	r3, r1
 732:	ff e1       	ldi	r31, 0x1F	; 31
 734:	f3 15       	cp	r31, r3
 736:	d8 f0       	brcs	.+54     	; 0x76e <vfprintf+0x98>
 738:	8b 32       	cpi	r24, 0x2B	; 43
 73a:	79 f0       	breq	.+30     	; 0x75a <vfprintf+0x84>
 73c:	38 f4       	brcc	.+14     	; 0x74c <vfprintf+0x76>
 73e:	80 32       	cpi	r24, 0x20	; 32
 740:	79 f0       	breq	.+30     	; 0x760 <vfprintf+0x8a>
 742:	83 32       	cpi	r24, 0x23	; 35
 744:	a1 f4       	brne	.+40     	; 0x76e <vfprintf+0x98>
 746:	23 2d       	mov	r18, r3
 748:	20 61       	ori	r18, 0x10	; 16
 74a:	1d c0       	rjmp	.+58     	; 0x786 <vfprintf+0xb0>
 74c:	8d 32       	cpi	r24, 0x2D	; 45
 74e:	61 f0       	breq	.+24     	; 0x768 <vfprintf+0x92>
 750:	80 33       	cpi	r24, 0x30	; 48
 752:	69 f4       	brne	.+26     	; 0x76e <vfprintf+0x98>
 754:	23 2d       	mov	r18, r3
 756:	21 60       	ori	r18, 0x01	; 1
 758:	16 c0       	rjmp	.+44     	; 0x786 <vfprintf+0xb0>
 75a:	83 2d       	mov	r24, r3
 75c:	82 60       	ori	r24, 0x02	; 2
 75e:	38 2e       	mov	r3, r24
 760:	e3 2d       	mov	r30, r3
 762:	e4 60       	ori	r30, 0x04	; 4
 764:	3e 2e       	mov	r3, r30
 766:	2a c0       	rjmp	.+84     	; 0x7bc <vfprintf+0xe6>
 768:	f3 2d       	mov	r31, r3
 76a:	f8 60       	ori	r31, 0x08	; 8
 76c:	1d c0       	rjmp	.+58     	; 0x7a8 <vfprintf+0xd2>
 76e:	37 fc       	sbrc	r3, 7
 770:	2d c0       	rjmp	.+90     	; 0x7cc <vfprintf+0xf6>
 772:	20 ed       	ldi	r18, 0xD0	; 208
 774:	28 0f       	add	r18, r24
 776:	2a 30       	cpi	r18, 0x0A	; 10
 778:	40 f0       	brcs	.+16     	; 0x78a <vfprintf+0xb4>
 77a:	8e 32       	cpi	r24, 0x2E	; 46
 77c:	b9 f4       	brne	.+46     	; 0x7ac <vfprintf+0xd6>
 77e:	36 fc       	sbrc	r3, 6
 780:	81 c1       	rjmp	.+770    	; 0xa84 <__stack+0x185>
 782:	23 2d       	mov	r18, r3
 784:	20 64       	ori	r18, 0x40	; 64
 786:	32 2e       	mov	r3, r18
 788:	19 c0       	rjmp	.+50     	; 0x7bc <vfprintf+0xe6>
 78a:	36 fe       	sbrs	r3, 6
 78c:	06 c0       	rjmp	.+12     	; 0x79a <vfprintf+0xc4>
 78e:	8a e0       	ldi	r24, 0x0A	; 10
 790:	98 9e       	mul	r9, r24
 792:	20 0d       	add	r18, r0
 794:	11 24       	eor	r1, r1
 796:	92 2e       	mov	r9, r18
 798:	11 c0       	rjmp	.+34     	; 0x7bc <vfprintf+0xe6>
 79a:	ea e0       	ldi	r30, 0x0A	; 10
 79c:	2e 9e       	mul	r2, r30
 79e:	20 0d       	add	r18, r0
 7a0:	11 24       	eor	r1, r1
 7a2:	22 2e       	mov	r2, r18
 7a4:	f3 2d       	mov	r31, r3
 7a6:	f0 62       	ori	r31, 0x20	; 32
 7a8:	3f 2e       	mov	r3, r31
 7aa:	08 c0       	rjmp	.+16     	; 0x7bc <vfprintf+0xe6>
 7ac:	8c 36       	cpi	r24, 0x6C	; 108
 7ae:	21 f4       	brne	.+8      	; 0x7b8 <vfprintf+0xe2>
 7b0:	83 2d       	mov	r24, r3
 7b2:	80 68       	ori	r24, 0x80	; 128
 7b4:	38 2e       	mov	r3, r24
 7b6:	02 c0       	rjmp	.+4      	; 0x7bc <vfprintf+0xe6>
 7b8:	88 36       	cpi	r24, 0x68	; 104
 7ba:	41 f4       	brne	.+16     	; 0x7cc <vfprintf+0xf6>
 7bc:	f7 01       	movw	r30, r14
 7be:	93 fd       	sbrc	r25, 3
 7c0:	85 91       	lpm	r24, Z+
 7c2:	93 ff       	sbrs	r25, 3
 7c4:	81 91       	ld	r24, Z+
 7c6:	7f 01       	movw	r14, r30
 7c8:	81 11       	cpse	r24, r1
 7ca:	b3 cf       	rjmp	.-154    	; 0x732 <vfprintf+0x5c>
 7cc:	98 2f       	mov	r25, r24
 7ce:	9f 7d       	andi	r25, 0xDF	; 223
 7d0:	95 54       	subi	r25, 0x45	; 69
 7d2:	93 30       	cpi	r25, 0x03	; 3
 7d4:	28 f4       	brcc	.+10     	; 0x7e0 <vfprintf+0x10a>
 7d6:	0c 5f       	subi	r16, 0xFC	; 252
 7d8:	1f 4f       	sbci	r17, 0xFF	; 255
 7da:	9f e3       	ldi	r25, 0x3F	; 63
 7dc:	99 83       	std	Y+1, r25	; 0x01
 7de:	0d c0       	rjmp	.+26     	; 0x7fa <vfprintf+0x124>
 7e0:	83 36       	cpi	r24, 0x63	; 99
 7e2:	31 f0       	breq	.+12     	; 0x7f0 <vfprintf+0x11a>
 7e4:	83 37       	cpi	r24, 0x73	; 115
 7e6:	71 f0       	breq	.+28     	; 0x804 <__DATA_REGION_LENGTH__+0x4>
 7e8:	83 35       	cpi	r24, 0x53	; 83
 7ea:	09 f0       	breq	.+2      	; 0x7ee <vfprintf+0x118>
 7ec:	59 c0       	rjmp	.+178    	; 0x8a0 <__DATA_REGION_LENGTH__+0xa0>
 7ee:	21 c0       	rjmp	.+66     	; 0x832 <__DATA_REGION_LENGTH__+0x32>
 7f0:	f8 01       	movw	r30, r16
 7f2:	80 81       	ld	r24, Z
 7f4:	89 83       	std	Y+1, r24	; 0x01
 7f6:	0e 5f       	subi	r16, 0xFE	; 254
 7f8:	1f 4f       	sbci	r17, 0xFF	; 255
 7fa:	88 24       	eor	r8, r8
 7fc:	83 94       	inc	r8
 7fe:	91 2c       	mov	r9, r1
 800:	53 01       	movw	r10, r6
 802:	13 c0       	rjmp	.+38     	; 0x82a <__DATA_REGION_LENGTH__+0x2a>
 804:	28 01       	movw	r4, r16
 806:	f2 e0       	ldi	r31, 0x02	; 2
 808:	4f 0e       	add	r4, r31
 80a:	51 1c       	adc	r5, r1
 80c:	f8 01       	movw	r30, r16
 80e:	a0 80       	ld	r10, Z
 810:	b1 80       	ldd	r11, Z+1	; 0x01
 812:	36 fe       	sbrs	r3, 6
 814:	03 c0       	rjmp	.+6      	; 0x81c <__DATA_REGION_LENGTH__+0x1c>
 816:	69 2d       	mov	r22, r9
 818:	70 e0       	ldi	r23, 0x00	; 0
 81a:	02 c0       	rjmp	.+4      	; 0x820 <__DATA_REGION_LENGTH__+0x20>
 81c:	6f ef       	ldi	r22, 0xFF	; 255
 81e:	7f ef       	ldi	r23, 0xFF	; 255
 820:	c5 01       	movw	r24, r10
 822:	0e 94 57 05 	call	0xaae	; 0xaae <strnlen>
 826:	4c 01       	movw	r8, r24
 828:	82 01       	movw	r16, r4
 82a:	f3 2d       	mov	r31, r3
 82c:	ff 77       	andi	r31, 0x7F	; 127
 82e:	3f 2e       	mov	r3, r31
 830:	16 c0       	rjmp	.+44     	; 0x85e <__DATA_REGION_LENGTH__+0x5e>
 832:	28 01       	movw	r4, r16
 834:	22 e0       	ldi	r18, 0x02	; 2
 836:	42 0e       	add	r4, r18
 838:	51 1c       	adc	r5, r1
 83a:	f8 01       	movw	r30, r16
 83c:	a0 80       	ld	r10, Z
 83e:	b1 80       	ldd	r11, Z+1	; 0x01
 840:	36 fe       	sbrs	r3, 6
 842:	03 c0       	rjmp	.+6      	; 0x84a <__DATA_REGION_LENGTH__+0x4a>
 844:	69 2d       	mov	r22, r9
 846:	70 e0       	ldi	r23, 0x00	; 0
 848:	02 c0       	rjmp	.+4      	; 0x84e <__DATA_REGION_LENGTH__+0x4e>
 84a:	6f ef       	ldi	r22, 0xFF	; 255
 84c:	7f ef       	ldi	r23, 0xFF	; 255
 84e:	c5 01       	movw	r24, r10
 850:	0e 94 4c 05 	call	0xa98	; 0xa98 <strnlen_P>
 854:	4c 01       	movw	r8, r24
 856:	f3 2d       	mov	r31, r3
 858:	f0 68       	ori	r31, 0x80	; 128
 85a:	3f 2e       	mov	r3, r31
 85c:	82 01       	movw	r16, r4
 85e:	33 fc       	sbrc	r3, 3
 860:	1b c0       	rjmp	.+54     	; 0x898 <__DATA_REGION_LENGTH__+0x98>
 862:	82 2d       	mov	r24, r2
 864:	90 e0       	ldi	r25, 0x00	; 0
 866:	88 16       	cp	r8, r24
 868:	99 06       	cpc	r9, r25
 86a:	b0 f4       	brcc	.+44     	; 0x898 <__DATA_REGION_LENGTH__+0x98>
 86c:	b6 01       	movw	r22, r12
 86e:	80 e2       	ldi	r24, 0x20	; 32
 870:	90 e0       	ldi	r25, 0x00	; 0
 872:	0e 94 62 05 	call	0xac4	; 0xac4 <fputc>
 876:	2a 94       	dec	r2
 878:	f4 cf       	rjmp	.-24     	; 0x862 <__DATA_REGION_LENGTH__+0x62>
 87a:	f5 01       	movw	r30, r10
 87c:	37 fc       	sbrc	r3, 7
 87e:	85 91       	lpm	r24, Z+
 880:	37 fe       	sbrs	r3, 7
 882:	81 91       	ld	r24, Z+
 884:	5f 01       	movw	r10, r30
 886:	b6 01       	movw	r22, r12
 888:	90 e0       	ldi	r25, 0x00	; 0
 88a:	0e 94 62 05 	call	0xac4	; 0xac4 <fputc>
 88e:	21 10       	cpse	r2, r1
 890:	2a 94       	dec	r2
 892:	21 e0       	ldi	r18, 0x01	; 1
 894:	82 1a       	sub	r8, r18
 896:	91 08       	sbc	r9, r1
 898:	81 14       	cp	r8, r1
 89a:	91 04       	cpc	r9, r1
 89c:	71 f7       	brne	.-36     	; 0x87a <__DATA_REGION_LENGTH__+0x7a>
 89e:	e8 c0       	rjmp	.+464    	; 0xa70 <__stack+0x171>
 8a0:	84 36       	cpi	r24, 0x64	; 100
 8a2:	11 f0       	breq	.+4      	; 0x8a8 <__DATA_REGION_LENGTH__+0xa8>
 8a4:	89 36       	cpi	r24, 0x69	; 105
 8a6:	41 f5       	brne	.+80     	; 0x8f8 <__DATA_REGION_LENGTH__+0xf8>
 8a8:	f8 01       	movw	r30, r16
 8aa:	37 fe       	sbrs	r3, 7
 8ac:	07 c0       	rjmp	.+14     	; 0x8bc <__DATA_REGION_LENGTH__+0xbc>
 8ae:	60 81       	ld	r22, Z
 8b0:	71 81       	ldd	r23, Z+1	; 0x01
 8b2:	82 81       	ldd	r24, Z+2	; 0x02
 8b4:	93 81       	ldd	r25, Z+3	; 0x03
 8b6:	0c 5f       	subi	r16, 0xFC	; 252
 8b8:	1f 4f       	sbci	r17, 0xFF	; 255
 8ba:	08 c0       	rjmp	.+16     	; 0x8cc <__DATA_REGION_LENGTH__+0xcc>
 8bc:	60 81       	ld	r22, Z
 8be:	71 81       	ldd	r23, Z+1	; 0x01
 8c0:	07 2e       	mov	r0, r23
 8c2:	00 0c       	add	r0, r0
 8c4:	88 0b       	sbc	r24, r24
 8c6:	99 0b       	sbc	r25, r25
 8c8:	0e 5f       	subi	r16, 0xFE	; 254
 8ca:	1f 4f       	sbci	r17, 0xFF	; 255
 8cc:	f3 2d       	mov	r31, r3
 8ce:	ff 76       	andi	r31, 0x6F	; 111
 8d0:	3f 2e       	mov	r3, r31
 8d2:	97 ff       	sbrs	r25, 7
 8d4:	09 c0       	rjmp	.+18     	; 0x8e8 <__DATA_REGION_LENGTH__+0xe8>
 8d6:	90 95       	com	r25
 8d8:	80 95       	com	r24
 8da:	70 95       	com	r23
 8dc:	61 95       	neg	r22
 8de:	7f 4f       	sbci	r23, 0xFF	; 255
 8e0:	8f 4f       	sbci	r24, 0xFF	; 255
 8e2:	9f 4f       	sbci	r25, 0xFF	; 255
 8e4:	f0 68       	ori	r31, 0x80	; 128
 8e6:	3f 2e       	mov	r3, r31
 8e8:	2a e0       	ldi	r18, 0x0A	; 10
 8ea:	30 e0       	ldi	r19, 0x00	; 0
 8ec:	a3 01       	movw	r20, r6
 8ee:	0e 94 9e 05 	call	0xb3c	; 0xb3c <__ultoa_invert>
 8f2:	88 2e       	mov	r8, r24
 8f4:	86 18       	sub	r8, r6
 8f6:	45 c0       	rjmp	.+138    	; 0x982 <__stack+0x83>
 8f8:	85 37       	cpi	r24, 0x75	; 117
 8fa:	31 f4       	brne	.+12     	; 0x908 <__stack+0x9>
 8fc:	23 2d       	mov	r18, r3
 8fe:	2f 7e       	andi	r18, 0xEF	; 239
 900:	b2 2e       	mov	r11, r18
 902:	2a e0       	ldi	r18, 0x0A	; 10
 904:	30 e0       	ldi	r19, 0x00	; 0
 906:	25 c0       	rjmp	.+74     	; 0x952 <__stack+0x53>
 908:	93 2d       	mov	r25, r3
 90a:	99 7f       	andi	r25, 0xF9	; 249
 90c:	b9 2e       	mov	r11, r25
 90e:	8f 36       	cpi	r24, 0x6F	; 111
 910:	c1 f0       	breq	.+48     	; 0x942 <__stack+0x43>
 912:	18 f4       	brcc	.+6      	; 0x91a <__stack+0x1b>
 914:	88 35       	cpi	r24, 0x58	; 88
 916:	79 f0       	breq	.+30     	; 0x936 <__stack+0x37>
 918:	b5 c0       	rjmp	.+362    	; 0xa84 <__stack+0x185>
 91a:	80 37       	cpi	r24, 0x70	; 112
 91c:	19 f0       	breq	.+6      	; 0x924 <__stack+0x25>
 91e:	88 37       	cpi	r24, 0x78	; 120
 920:	21 f0       	breq	.+8      	; 0x92a <__stack+0x2b>
 922:	b0 c0       	rjmp	.+352    	; 0xa84 <__stack+0x185>
 924:	e9 2f       	mov	r30, r25
 926:	e0 61       	ori	r30, 0x10	; 16
 928:	be 2e       	mov	r11, r30
 92a:	b4 fe       	sbrs	r11, 4
 92c:	0d c0       	rjmp	.+26     	; 0x948 <__stack+0x49>
 92e:	fb 2d       	mov	r31, r11
 930:	f4 60       	ori	r31, 0x04	; 4
 932:	bf 2e       	mov	r11, r31
 934:	09 c0       	rjmp	.+18     	; 0x948 <__stack+0x49>
 936:	34 fe       	sbrs	r3, 4
 938:	0a c0       	rjmp	.+20     	; 0x94e <__stack+0x4f>
 93a:	29 2f       	mov	r18, r25
 93c:	26 60       	ori	r18, 0x06	; 6
 93e:	b2 2e       	mov	r11, r18
 940:	06 c0       	rjmp	.+12     	; 0x94e <__stack+0x4f>
 942:	28 e0       	ldi	r18, 0x08	; 8
 944:	30 e0       	ldi	r19, 0x00	; 0
 946:	05 c0       	rjmp	.+10     	; 0x952 <__stack+0x53>
 948:	20 e1       	ldi	r18, 0x10	; 16
 94a:	30 e0       	ldi	r19, 0x00	; 0
 94c:	02 c0       	rjmp	.+4      	; 0x952 <__stack+0x53>
 94e:	20 e1       	ldi	r18, 0x10	; 16
 950:	32 e0       	ldi	r19, 0x02	; 2
 952:	f8 01       	movw	r30, r16
 954:	b7 fe       	sbrs	r11, 7
 956:	07 c0       	rjmp	.+14     	; 0x966 <__stack+0x67>
 958:	60 81       	ld	r22, Z
 95a:	71 81       	ldd	r23, Z+1	; 0x01
 95c:	82 81       	ldd	r24, Z+2	; 0x02
 95e:	93 81       	ldd	r25, Z+3	; 0x03
 960:	0c 5f       	subi	r16, 0xFC	; 252
 962:	1f 4f       	sbci	r17, 0xFF	; 255
 964:	06 c0       	rjmp	.+12     	; 0x972 <__stack+0x73>
 966:	60 81       	ld	r22, Z
 968:	71 81       	ldd	r23, Z+1	; 0x01
 96a:	80 e0       	ldi	r24, 0x00	; 0
 96c:	90 e0       	ldi	r25, 0x00	; 0
 96e:	0e 5f       	subi	r16, 0xFE	; 254
 970:	1f 4f       	sbci	r17, 0xFF	; 255
 972:	a3 01       	movw	r20, r6
 974:	0e 94 9e 05 	call	0xb3c	; 0xb3c <__ultoa_invert>
 978:	88 2e       	mov	r8, r24
 97a:	86 18       	sub	r8, r6
 97c:	fb 2d       	mov	r31, r11
 97e:	ff 77       	andi	r31, 0x7F	; 127
 980:	3f 2e       	mov	r3, r31
 982:	36 fe       	sbrs	r3, 6
 984:	0d c0       	rjmp	.+26     	; 0x9a0 <__stack+0xa1>
 986:	23 2d       	mov	r18, r3
 988:	2e 7f       	andi	r18, 0xFE	; 254
 98a:	a2 2e       	mov	r10, r18
 98c:	89 14       	cp	r8, r9
 98e:	58 f4       	brcc	.+22     	; 0x9a6 <__stack+0xa7>
 990:	34 fe       	sbrs	r3, 4
 992:	0b c0       	rjmp	.+22     	; 0x9aa <__stack+0xab>
 994:	32 fc       	sbrc	r3, 2
 996:	09 c0       	rjmp	.+18     	; 0x9aa <__stack+0xab>
 998:	83 2d       	mov	r24, r3
 99a:	8e 7e       	andi	r24, 0xEE	; 238
 99c:	a8 2e       	mov	r10, r24
 99e:	05 c0       	rjmp	.+10     	; 0x9aa <__stack+0xab>
 9a0:	b8 2c       	mov	r11, r8
 9a2:	a3 2c       	mov	r10, r3
 9a4:	03 c0       	rjmp	.+6      	; 0x9ac <__stack+0xad>
 9a6:	b8 2c       	mov	r11, r8
 9a8:	01 c0       	rjmp	.+2      	; 0x9ac <__stack+0xad>
 9aa:	b9 2c       	mov	r11, r9
 9ac:	a4 fe       	sbrs	r10, 4
 9ae:	0f c0       	rjmp	.+30     	; 0x9ce <__stack+0xcf>
 9b0:	fe 01       	movw	r30, r28
 9b2:	e8 0d       	add	r30, r8
 9b4:	f1 1d       	adc	r31, r1
 9b6:	80 81       	ld	r24, Z
 9b8:	80 33       	cpi	r24, 0x30	; 48
 9ba:	21 f4       	brne	.+8      	; 0x9c4 <__stack+0xc5>
 9bc:	9a 2d       	mov	r25, r10
 9be:	99 7e       	andi	r25, 0xE9	; 233
 9c0:	a9 2e       	mov	r10, r25
 9c2:	09 c0       	rjmp	.+18     	; 0x9d6 <__stack+0xd7>
 9c4:	a2 fe       	sbrs	r10, 2
 9c6:	06 c0       	rjmp	.+12     	; 0x9d4 <__stack+0xd5>
 9c8:	b3 94       	inc	r11
 9ca:	b3 94       	inc	r11
 9cc:	04 c0       	rjmp	.+8      	; 0x9d6 <__stack+0xd7>
 9ce:	8a 2d       	mov	r24, r10
 9d0:	86 78       	andi	r24, 0x86	; 134
 9d2:	09 f0       	breq	.+2      	; 0x9d6 <__stack+0xd7>
 9d4:	b3 94       	inc	r11
 9d6:	a3 fc       	sbrc	r10, 3
 9d8:	11 c0       	rjmp	.+34     	; 0x9fc <__stack+0xfd>
 9da:	a0 fe       	sbrs	r10, 0
 9dc:	06 c0       	rjmp	.+12     	; 0x9ea <__stack+0xeb>
 9de:	b2 14       	cp	r11, r2
 9e0:	88 f4       	brcc	.+34     	; 0xa04 <__stack+0x105>
 9e2:	28 0c       	add	r2, r8
 9e4:	92 2c       	mov	r9, r2
 9e6:	9b 18       	sub	r9, r11
 9e8:	0e c0       	rjmp	.+28     	; 0xa06 <__stack+0x107>
 9ea:	b2 14       	cp	r11, r2
 9ec:	60 f4       	brcc	.+24     	; 0xa06 <__stack+0x107>
 9ee:	b6 01       	movw	r22, r12
 9f0:	80 e2       	ldi	r24, 0x20	; 32
 9f2:	90 e0       	ldi	r25, 0x00	; 0
 9f4:	0e 94 62 05 	call	0xac4	; 0xac4 <fputc>
 9f8:	b3 94       	inc	r11
 9fa:	f7 cf       	rjmp	.-18     	; 0x9ea <__stack+0xeb>
 9fc:	b2 14       	cp	r11, r2
 9fe:	18 f4       	brcc	.+6      	; 0xa06 <__stack+0x107>
 a00:	2b 18       	sub	r2, r11
 a02:	02 c0       	rjmp	.+4      	; 0xa08 <__stack+0x109>
 a04:	98 2c       	mov	r9, r8
 a06:	21 2c       	mov	r2, r1
 a08:	a4 fe       	sbrs	r10, 4
 a0a:	10 c0       	rjmp	.+32     	; 0xa2c <__stack+0x12d>
 a0c:	b6 01       	movw	r22, r12
 a0e:	80 e3       	ldi	r24, 0x30	; 48
 a10:	90 e0       	ldi	r25, 0x00	; 0
 a12:	0e 94 62 05 	call	0xac4	; 0xac4 <fputc>
 a16:	a2 fe       	sbrs	r10, 2
 a18:	17 c0       	rjmp	.+46     	; 0xa48 <__stack+0x149>
 a1a:	a1 fc       	sbrc	r10, 1
 a1c:	03 c0       	rjmp	.+6      	; 0xa24 <__stack+0x125>
 a1e:	88 e7       	ldi	r24, 0x78	; 120
 a20:	90 e0       	ldi	r25, 0x00	; 0
 a22:	02 c0       	rjmp	.+4      	; 0xa28 <__stack+0x129>
 a24:	88 e5       	ldi	r24, 0x58	; 88
 a26:	90 e0       	ldi	r25, 0x00	; 0
 a28:	b6 01       	movw	r22, r12
 a2a:	0c c0       	rjmp	.+24     	; 0xa44 <__stack+0x145>
 a2c:	8a 2d       	mov	r24, r10
 a2e:	86 78       	andi	r24, 0x86	; 134
 a30:	59 f0       	breq	.+22     	; 0xa48 <__stack+0x149>
 a32:	a1 fe       	sbrs	r10, 1
 a34:	02 c0       	rjmp	.+4      	; 0xa3a <__stack+0x13b>
 a36:	8b e2       	ldi	r24, 0x2B	; 43
 a38:	01 c0       	rjmp	.+2      	; 0xa3c <__stack+0x13d>
 a3a:	80 e2       	ldi	r24, 0x20	; 32
 a3c:	a7 fc       	sbrc	r10, 7
 a3e:	8d e2       	ldi	r24, 0x2D	; 45
 a40:	b6 01       	movw	r22, r12
 a42:	90 e0       	ldi	r25, 0x00	; 0
 a44:	0e 94 62 05 	call	0xac4	; 0xac4 <fputc>
 a48:	89 14       	cp	r8, r9
 a4a:	38 f4       	brcc	.+14     	; 0xa5a <__stack+0x15b>
 a4c:	b6 01       	movw	r22, r12
 a4e:	80 e3       	ldi	r24, 0x30	; 48
 a50:	90 e0       	ldi	r25, 0x00	; 0
 a52:	0e 94 62 05 	call	0xac4	; 0xac4 <fputc>
 a56:	9a 94       	dec	r9
 a58:	f7 cf       	rjmp	.-18     	; 0xa48 <__stack+0x149>
 a5a:	8a 94       	dec	r8
 a5c:	f3 01       	movw	r30, r6
 a5e:	e8 0d       	add	r30, r8
 a60:	f1 1d       	adc	r31, r1
 a62:	80 81       	ld	r24, Z
 a64:	b6 01       	movw	r22, r12
 a66:	90 e0       	ldi	r25, 0x00	; 0
 a68:	0e 94 62 05 	call	0xac4	; 0xac4 <fputc>
 a6c:	81 10       	cpse	r8, r1
 a6e:	f5 cf       	rjmp	.-22     	; 0xa5a <__stack+0x15b>
 a70:	22 20       	and	r2, r2
 a72:	09 f4       	brne	.+2      	; 0xa76 <__stack+0x177>
 a74:	42 ce       	rjmp	.-892    	; 0x6fa <vfprintf+0x24>
 a76:	b6 01       	movw	r22, r12
 a78:	80 e2       	ldi	r24, 0x20	; 32
 a7a:	90 e0       	ldi	r25, 0x00	; 0
 a7c:	0e 94 62 05 	call	0xac4	; 0xac4 <fputc>
 a80:	2a 94       	dec	r2
 a82:	f6 cf       	rjmp	.-20     	; 0xa70 <__stack+0x171>
 a84:	f6 01       	movw	r30, r12
 a86:	86 81       	ldd	r24, Z+6	; 0x06
 a88:	97 81       	ldd	r25, Z+7	; 0x07
 a8a:	02 c0       	rjmp	.+4      	; 0xa90 <__stack+0x191>
 a8c:	8f ef       	ldi	r24, 0xFF	; 255
 a8e:	9f ef       	ldi	r25, 0xFF	; 255
 a90:	2b 96       	adiw	r28, 0x0b	; 11
 a92:	e2 e1       	ldi	r30, 0x12	; 18
 a94:	0c 94 18 06 	jmp	0xc30	; 0xc30 <__epilogue_restores__>

00000a98 <strnlen_P>:
 a98:	fc 01       	movw	r30, r24
 a9a:	05 90       	lpm	r0, Z+
 a9c:	61 50       	subi	r22, 0x01	; 1
 a9e:	70 40       	sbci	r23, 0x00	; 0
 aa0:	01 10       	cpse	r0, r1
 aa2:	d8 f7       	brcc	.-10     	; 0xa9a <strnlen_P+0x2>
 aa4:	80 95       	com	r24
 aa6:	90 95       	com	r25
 aa8:	8e 0f       	add	r24, r30
 aaa:	9f 1f       	adc	r25, r31
 aac:	08 95       	ret

00000aae <strnlen>:
 aae:	fc 01       	movw	r30, r24
 ab0:	61 50       	subi	r22, 0x01	; 1
 ab2:	70 40       	sbci	r23, 0x00	; 0
 ab4:	01 90       	ld	r0, Z+
 ab6:	01 10       	cpse	r0, r1
 ab8:	d8 f7       	brcc	.-10     	; 0xab0 <strnlen+0x2>
 aba:	80 95       	com	r24
 abc:	90 95       	com	r25
 abe:	8e 0f       	add	r24, r30
 ac0:	9f 1f       	adc	r25, r31
 ac2:	08 95       	ret

00000ac4 <fputc>:
 ac4:	0f 93       	push	r16
 ac6:	1f 93       	push	r17
 ac8:	cf 93       	push	r28
 aca:	df 93       	push	r29
 acc:	fb 01       	movw	r30, r22
 ace:	23 81       	ldd	r18, Z+3	; 0x03
 ad0:	21 fd       	sbrc	r18, 1
 ad2:	03 c0       	rjmp	.+6      	; 0xada <fputc+0x16>
 ad4:	8f ef       	ldi	r24, 0xFF	; 255
 ad6:	9f ef       	ldi	r25, 0xFF	; 255
 ad8:	2c c0       	rjmp	.+88     	; 0xb32 <fputc+0x6e>
 ada:	22 ff       	sbrs	r18, 2
 adc:	16 c0       	rjmp	.+44     	; 0xb0a <fputc+0x46>
 ade:	46 81       	ldd	r20, Z+6	; 0x06
 ae0:	57 81       	ldd	r21, Z+7	; 0x07
 ae2:	24 81       	ldd	r18, Z+4	; 0x04
 ae4:	35 81       	ldd	r19, Z+5	; 0x05
 ae6:	42 17       	cp	r20, r18
 ae8:	53 07       	cpc	r21, r19
 aea:	44 f4       	brge	.+16     	; 0xafc <fputc+0x38>
 aec:	a0 81       	ld	r26, Z
 aee:	b1 81       	ldd	r27, Z+1	; 0x01
 af0:	9d 01       	movw	r18, r26
 af2:	2f 5f       	subi	r18, 0xFF	; 255
 af4:	3f 4f       	sbci	r19, 0xFF	; 255
 af6:	31 83       	std	Z+1, r19	; 0x01
 af8:	20 83       	st	Z, r18
 afa:	8c 93       	st	X, r24
 afc:	26 81       	ldd	r18, Z+6	; 0x06
 afe:	37 81       	ldd	r19, Z+7	; 0x07
 b00:	2f 5f       	subi	r18, 0xFF	; 255
 b02:	3f 4f       	sbci	r19, 0xFF	; 255
 b04:	37 83       	std	Z+7, r19	; 0x07
 b06:	26 83       	std	Z+6, r18	; 0x06
 b08:	14 c0       	rjmp	.+40     	; 0xb32 <fputc+0x6e>
 b0a:	8b 01       	movw	r16, r22
 b0c:	ec 01       	movw	r28, r24
 b0e:	fb 01       	movw	r30, r22
 b10:	00 84       	ldd	r0, Z+8	; 0x08
 b12:	f1 85       	ldd	r31, Z+9	; 0x09
 b14:	e0 2d       	mov	r30, r0
 b16:	09 95       	icall
 b18:	89 2b       	or	r24, r25
 b1a:	e1 f6       	brne	.-72     	; 0xad4 <fputc+0x10>
 b1c:	d8 01       	movw	r26, r16
 b1e:	16 96       	adiw	r26, 0x06	; 6
 b20:	8d 91       	ld	r24, X+
 b22:	9c 91       	ld	r25, X
 b24:	17 97       	sbiw	r26, 0x07	; 7
 b26:	01 96       	adiw	r24, 0x01	; 1
 b28:	17 96       	adiw	r26, 0x07	; 7
 b2a:	9c 93       	st	X, r25
 b2c:	8e 93       	st	-X, r24
 b2e:	16 97       	sbiw	r26, 0x06	; 6
 b30:	ce 01       	movw	r24, r28
 b32:	df 91       	pop	r29
 b34:	cf 91       	pop	r28
 b36:	1f 91       	pop	r17
 b38:	0f 91       	pop	r16
 b3a:	08 95       	ret

00000b3c <__ultoa_invert>:
 b3c:	fa 01       	movw	r30, r20
 b3e:	aa 27       	eor	r26, r26
 b40:	28 30       	cpi	r18, 0x08	; 8
 b42:	51 f1       	breq	.+84     	; 0xb98 <__ultoa_invert+0x5c>
 b44:	20 31       	cpi	r18, 0x10	; 16
 b46:	81 f1       	breq	.+96     	; 0xba8 <__ultoa_invert+0x6c>
 b48:	e8 94       	clt
 b4a:	6f 93       	push	r22
 b4c:	6e 7f       	andi	r22, 0xFE	; 254
 b4e:	6e 5f       	subi	r22, 0xFE	; 254
 b50:	7f 4f       	sbci	r23, 0xFF	; 255
 b52:	8f 4f       	sbci	r24, 0xFF	; 255
 b54:	9f 4f       	sbci	r25, 0xFF	; 255
 b56:	af 4f       	sbci	r26, 0xFF	; 255
 b58:	b1 e0       	ldi	r27, 0x01	; 1
 b5a:	3e d0       	rcall	.+124    	; 0xbd8 <__ultoa_invert+0x9c>
 b5c:	b4 e0       	ldi	r27, 0x04	; 4
 b5e:	3c d0       	rcall	.+120    	; 0xbd8 <__ultoa_invert+0x9c>
 b60:	67 0f       	add	r22, r23
 b62:	78 1f       	adc	r23, r24
 b64:	89 1f       	adc	r24, r25
 b66:	9a 1f       	adc	r25, r26
 b68:	a1 1d       	adc	r26, r1
 b6a:	68 0f       	add	r22, r24
 b6c:	79 1f       	adc	r23, r25
 b6e:	8a 1f       	adc	r24, r26
 b70:	91 1d       	adc	r25, r1
 b72:	a1 1d       	adc	r26, r1
 b74:	6a 0f       	add	r22, r26
 b76:	71 1d       	adc	r23, r1
 b78:	81 1d       	adc	r24, r1
 b7a:	91 1d       	adc	r25, r1
 b7c:	a1 1d       	adc	r26, r1
 b7e:	20 d0       	rcall	.+64     	; 0xbc0 <__ultoa_invert+0x84>
 b80:	09 f4       	brne	.+2      	; 0xb84 <__ultoa_invert+0x48>
 b82:	68 94       	set
 b84:	3f 91       	pop	r19
 b86:	2a e0       	ldi	r18, 0x0A	; 10
 b88:	26 9f       	mul	r18, r22
 b8a:	11 24       	eor	r1, r1
 b8c:	30 19       	sub	r19, r0
 b8e:	30 5d       	subi	r19, 0xD0	; 208
 b90:	31 93       	st	Z+, r19
 b92:	de f6       	brtc	.-74     	; 0xb4a <__ultoa_invert+0xe>
 b94:	cf 01       	movw	r24, r30
 b96:	08 95       	ret
 b98:	46 2f       	mov	r20, r22
 b9a:	47 70       	andi	r20, 0x07	; 7
 b9c:	40 5d       	subi	r20, 0xD0	; 208
 b9e:	41 93       	st	Z+, r20
 ba0:	b3 e0       	ldi	r27, 0x03	; 3
 ba2:	0f d0       	rcall	.+30     	; 0xbc2 <__ultoa_invert+0x86>
 ba4:	c9 f7       	brne	.-14     	; 0xb98 <__ultoa_invert+0x5c>
 ba6:	f6 cf       	rjmp	.-20     	; 0xb94 <__ultoa_invert+0x58>
 ba8:	46 2f       	mov	r20, r22
 baa:	4f 70       	andi	r20, 0x0F	; 15
 bac:	40 5d       	subi	r20, 0xD0	; 208
 bae:	4a 33       	cpi	r20, 0x3A	; 58
 bb0:	18 f0       	brcs	.+6      	; 0xbb8 <__ultoa_invert+0x7c>
 bb2:	49 5d       	subi	r20, 0xD9	; 217
 bb4:	31 fd       	sbrc	r19, 1
 bb6:	40 52       	subi	r20, 0x20	; 32
 bb8:	41 93       	st	Z+, r20
 bba:	02 d0       	rcall	.+4      	; 0xbc0 <__ultoa_invert+0x84>
 bbc:	a9 f7       	brne	.-22     	; 0xba8 <__ultoa_invert+0x6c>
 bbe:	ea cf       	rjmp	.-44     	; 0xb94 <__ultoa_invert+0x58>
 bc0:	b4 e0       	ldi	r27, 0x04	; 4
 bc2:	a6 95       	lsr	r26
 bc4:	97 95       	ror	r25
 bc6:	87 95       	ror	r24
 bc8:	77 95       	ror	r23
 bca:	67 95       	ror	r22
 bcc:	ba 95       	dec	r27
 bce:	c9 f7       	brne	.-14     	; 0xbc2 <__ultoa_invert+0x86>
 bd0:	00 97       	sbiw	r24, 0x00	; 0
 bd2:	61 05       	cpc	r22, r1
 bd4:	71 05       	cpc	r23, r1
 bd6:	08 95       	ret
 bd8:	9b 01       	movw	r18, r22
 bda:	ac 01       	movw	r20, r24
 bdc:	0a 2e       	mov	r0, r26
 bde:	06 94       	lsr	r0
 be0:	57 95       	ror	r21
 be2:	47 95       	ror	r20
 be4:	37 95       	ror	r19
 be6:	27 95       	ror	r18
 be8:	ba 95       	dec	r27
 bea:	c9 f7       	brne	.-14     	; 0xbde <__ultoa_invert+0xa2>
 bec:	62 0f       	add	r22, r18
 bee:	73 1f       	adc	r23, r19
 bf0:	84 1f       	adc	r24, r20
 bf2:	95 1f       	adc	r25, r21
 bf4:	a0 1d       	adc	r26, r0
 bf6:	08 95       	ret

00000bf8 <__prologue_saves__>:
 bf8:	2f 92       	push	r2
 bfa:	3f 92       	push	r3
 bfc:	4f 92       	push	r4
 bfe:	5f 92       	push	r5
 c00:	6f 92       	push	r6
 c02:	7f 92       	push	r7
 c04:	8f 92       	push	r8
 c06:	9f 92       	push	r9
 c08:	af 92       	push	r10
 c0a:	bf 92       	push	r11
 c0c:	cf 92       	push	r12
 c0e:	df 92       	push	r13
 c10:	ef 92       	push	r14
 c12:	ff 92       	push	r15
 c14:	0f 93       	push	r16
 c16:	1f 93       	push	r17
 c18:	cf 93       	push	r28
 c1a:	df 93       	push	r29
 c1c:	cd b7       	in	r28, 0x3d	; 61
 c1e:	de b7       	in	r29, 0x3e	; 62
 c20:	ca 1b       	sub	r28, r26
 c22:	db 0b       	sbc	r29, r27
 c24:	0f b6       	in	r0, 0x3f	; 63
 c26:	f8 94       	cli
 c28:	de bf       	out	0x3e, r29	; 62
 c2a:	0f be       	out	0x3f, r0	; 63
 c2c:	cd bf       	out	0x3d, r28	; 61
 c2e:	09 94       	ijmp

00000c30 <__epilogue_restores__>:
 c30:	2a 88       	ldd	r2, Y+18	; 0x12
 c32:	39 88       	ldd	r3, Y+17	; 0x11
 c34:	48 88       	ldd	r4, Y+16	; 0x10
 c36:	5f 84       	ldd	r5, Y+15	; 0x0f
 c38:	6e 84       	ldd	r6, Y+14	; 0x0e
 c3a:	7d 84       	ldd	r7, Y+13	; 0x0d
 c3c:	8c 84       	ldd	r8, Y+12	; 0x0c
 c3e:	9b 84       	ldd	r9, Y+11	; 0x0b
 c40:	aa 84       	ldd	r10, Y+10	; 0x0a
 c42:	b9 84       	ldd	r11, Y+9	; 0x09
 c44:	c8 84       	ldd	r12, Y+8	; 0x08
 c46:	df 80       	ldd	r13, Y+7	; 0x07
 c48:	ee 80       	ldd	r14, Y+6	; 0x06
 c4a:	fd 80       	ldd	r15, Y+5	; 0x05
 c4c:	0c 81       	ldd	r16, Y+4	; 0x04
 c4e:	1b 81       	ldd	r17, Y+3	; 0x03
 c50:	aa 81       	ldd	r26, Y+2	; 0x02
 c52:	b9 81       	ldd	r27, Y+1	; 0x01
 c54:	ce 0f       	add	r28, r30
 c56:	d1 1d       	adc	r29, r1
 c58:	0f b6       	in	r0, 0x3f	; 63
 c5a:	f8 94       	cli
 c5c:	de bf       	out	0x3e, r29	; 62
 c5e:	0f be       	out	0x3f, r0	; 63
 c60:	cd bf       	out	0x3d, r28	; 61
 c62:	ed 01       	movw	r28, r26
 c64:	08 95       	ret

00000c66 <_exit>:
 c66:	f8 94       	cli

00000c68 <__stop_program>:
 c68:	ff cf       	rjmp	.-2      	; 0xc68 <__stop_program>
