
CafeTrainAtmega328.elf:     file format elf32-avr

Sections:
Idx Name          Size      VMA       LMA       File off  Algn
  0 .data         0000001c  00800100  000004ec  00000580  2**0
                  CONTENTS, ALLOC, LOAD, DATA
  1 .text         000004ec  00000000  00000000  00000094  2**1
                  CONTENTS, ALLOC, LOAD, READONLY, CODE
  2 .bss          00000002  0080011c  0080011c  0000059c  2**0
                  ALLOC
  3 .comment      00000030  00000000  00000000  0000059c  2**0
                  CONTENTS, READONLY
  4 .note.gnu.avr.deviceinfo 00000040  00000000  00000000  000005cc  2**2
                  CONTENTS, READONLY
  5 .debug_aranges 000000f8  00000000  00000000  0000060c  2**0
                  CONTENTS, READONLY, DEBUGGING
  6 .debug_info   000014e4  00000000  00000000  00000704  2**0
                  CONTENTS, READONLY, DEBUGGING
  7 .debug_abbrev 00000ac8  00000000  00000000  00001be8  2**0
                  CONTENTS, READONLY, DEBUGGING
  8 .debug_line   00000957  00000000  00000000  000026b0  2**0
                  CONTENTS, READONLY, DEBUGGING
  9 .debug_frame  00000264  00000000  00000000  00003008  2**2
                  CONTENTS, READONLY, DEBUGGING
 10 .debug_str    00000692  00000000  00000000  0000326c  2**0
                  CONTENTS, READONLY, DEBUGGING
 11 .debug_loc    00000a2b  00000000  00000000  000038fe  2**0
                  CONTENTS, READONLY, DEBUGGING
 12 .debug_ranges 000000c8  00000000  00000000  00004329  2**0
                  CONTENTS, READONLY, DEBUGGING

Disassembly of section .text:

00000000 <__vectors>:
   0:	0c 94 34 00 	jmp	0x68	; 0x68 <__ctors_end>
   4:	0c 94 51 00 	jmp	0xa2	; 0xa2 <__bad_interrupt>
   8:	0c 94 51 00 	jmp	0xa2	; 0xa2 <__bad_interrupt>
   c:	0c 94 51 00 	jmp	0xa2	; 0xa2 <__bad_interrupt>
  10:	0c 94 51 00 	jmp	0xa2	; 0xa2 <__bad_interrupt>
  14:	0c 94 51 00 	jmp	0xa2	; 0xa2 <__bad_interrupt>
  18:	0c 94 51 00 	jmp	0xa2	; 0xa2 <__bad_interrupt>
  1c:	0c 94 51 00 	jmp	0xa2	; 0xa2 <__bad_interrupt>
  20:	0c 94 51 00 	jmp	0xa2	; 0xa2 <__bad_interrupt>
  24:	0c 94 51 00 	jmp	0xa2	; 0xa2 <__bad_interrupt>
  28:	0c 94 51 00 	jmp	0xa2	; 0xa2 <__bad_interrupt>
  2c:	0c 94 51 00 	jmp	0xa2	; 0xa2 <__bad_interrupt>
  30:	0c 94 51 00 	jmp	0xa2	; 0xa2 <__bad_interrupt>
  34:	0c 94 51 00 	jmp	0xa2	; 0xa2 <__bad_interrupt>
  38:	0c 94 51 00 	jmp	0xa2	; 0xa2 <__bad_interrupt>
  3c:	0c 94 51 00 	jmp	0xa2	; 0xa2 <__bad_interrupt>
  40:	0c 94 51 00 	jmp	0xa2	; 0xa2 <__bad_interrupt>
  44:	0c 94 51 00 	jmp	0xa2	; 0xa2 <__bad_interrupt>
  48:	0c 94 51 00 	jmp	0xa2	; 0xa2 <__bad_interrupt>
  4c:	0c 94 51 00 	jmp	0xa2	; 0xa2 <__bad_interrupt>
  50:	0c 94 51 00 	jmp	0xa2	; 0xa2 <__bad_interrupt>
  54:	0c 94 51 00 	jmp	0xa2	; 0xa2 <__bad_interrupt>
  58:	0c 94 51 00 	jmp	0xa2	; 0xa2 <__bad_interrupt>
  5c:	0c 94 51 00 	jmp	0xa2	; 0xa2 <__bad_interrupt>
  60:	0c 94 51 00 	jmp	0xa2	; 0xa2 <__bad_interrupt>
  64:	0c 94 51 00 	jmp	0xa2	; 0xa2 <__bad_interrupt>

00000068 <__ctors_end>:
  68:	11 24       	eor	r1, r1
  6a:	1f be       	out	0x3f, r1	; 63
  6c:	cf ef       	ldi	r28, 0xFF	; 255
  6e:	d8 e0       	ldi	r29, 0x08	; 8
  70:	de bf       	out	0x3e, r29	; 62
  72:	cd bf       	out	0x3d, r28	; 61

00000074 <__do_copy_data>:
  74:	11 e0       	ldi	r17, 0x01	; 1
  76:	a0 e0       	ldi	r26, 0x00	; 0
  78:	b1 e0       	ldi	r27, 0x01	; 1
  7a:	ec ee       	ldi	r30, 0xEC	; 236
  7c:	f4 e0       	ldi	r31, 0x04	; 4
  7e:	02 c0       	rjmp	.+4      	; 0x84 <__do_copy_data+0x10>
  80:	05 90       	lpm	r0, Z+
  82:	0d 92       	st	X+, r0
  84:	ac 31       	cpi	r26, 0x1C	; 28
  86:	b1 07       	cpc	r27, r17
  88:	d9 f7       	brne	.-10     	; 0x80 <__do_copy_data+0xc>

0000008a <__do_clear_bss>:
  8a:	21 e0       	ldi	r18, 0x01	; 1
  8c:	ac e1       	ldi	r26, 0x1C	; 28
  8e:	b1 e0       	ldi	r27, 0x01	; 1
  90:	01 c0       	rjmp	.+2      	; 0x94 <.do_clear_bss_start>

00000092 <.do_clear_bss_loop>:
  92:	1d 92       	st	X+, r1

00000094 <.do_clear_bss_start>:
  94:	ae 31       	cpi	r26, 0x1E	; 30
  96:	b2 07       	cpc	r27, r18
  98:	e1 f7       	brne	.-8      	; 0x92 <.do_clear_bss_loop>
  9a:	0e 94 be 01 	call	0x37c	; 0x37c <main>
  9e:	0c 94 74 02 	jmp	0x4e8	; 0x4e8 <_exit>

000000a2 <__bad_interrupt>:
  a2:	0c 94 00 00 	jmp	0	; 0x0 <__vectors>

000000a6 <I2C_Init>:



// --- Функции для работы с I2C ---
void I2C_Init(void) {
	TWSR = 0x00;             // Предделитель равен 1
  a6:	10 92 b9 00 	sts	0x00B9, r1	; 0x8000b9 <__TEXT_REGION_LENGTH__+0x7f80b9>
	TWBR = 72;               // Устанавливаем скорость I2C = 100 кГц (16 МГц / 160)
  aa:	88 e4       	ldi	r24, 0x48	; 72
  ac:	80 93 b8 00 	sts	0x00B8, r24	; 0x8000b8 <__TEXT_REGION_LENGTH__+0x7f80b8>
	TWCR = (1 << TWEN);      // Включаем модуль TWI
  b0:	84 e0       	ldi	r24, 0x04	; 4
  b2:	80 93 bc 00 	sts	0x00BC, r24	; 0x8000bc <__TEXT_REGION_LENGTH__+0x7f80bc>
  b6:	08 95       	ret

000000b8 <I2C_Start>:
}

void I2C_Start(void) {
	TWCR = (1 << TWSTA) | (1 << TWEN) | (1 << TWINT);  // Генерация START
  b8:	84 ea       	ldi	r24, 0xA4	; 164
  ba:	80 93 bc 00 	sts	0x00BC, r24	; 0x8000bc <__TEXT_REGION_LENGTH__+0x7f80bc>
	while (!(TWCR & (1 << TWINT)));                   // Ожидание завершения
  be:	80 91 bc 00 	lds	r24, 0x00BC	; 0x8000bc <__TEXT_REGION_LENGTH__+0x7f80bc>
  c2:	88 23       	and	r24, r24
  c4:	e4 f7       	brge	.-8      	; 0xbe <I2C_Start+0x6>
}
  c6:	08 95       	ret

000000c8 <I2C_Stop>:

void I2C_Stop(void) {
	TWCR = (1 << TWSTO) | (1 << TWEN) | (1 << TWINT);  // Генерация STOP
  c8:	84 e9       	ldi	r24, 0x94	; 148
  ca:	80 93 bc 00 	sts	0x00BC, r24	; 0x8000bc <__TEXT_REGION_LENGTH__+0x7f80bc>
	while (TWCR & (1 << TWSTO));                      // Ждать завершения STOP
  ce:	80 91 bc 00 	lds	r24, 0x00BC	; 0x8000bc <__TEXT_REGION_LENGTH__+0x7f80bc>
  d2:	84 fd       	sbrc	r24, 4
  d4:	fc cf       	rjmp	.-8      	; 0xce <I2C_Stop+0x6>
}
  d6:	08 95       	ret

000000d8 <I2C_Write>:

void I2C_Write(uint8_t data) {
	TWDR = data;                                      // Загружаем данные
  d8:	80 93 bb 00 	sts	0x00BB, r24	; 0x8000bb <__TEXT_REGION_LENGTH__+0x7f80bb>
	TWCR = (1 << TWEN) | (1 << TWINT);                // Начало передачи
  dc:	84 e8       	ldi	r24, 0x84	; 132
  de:	80 93 bc 00 	sts	0x00BC, r24	; 0x8000bc <__TEXT_REGION_LENGTH__+0x7f80bc>
	while (!(TWCR & (1 << TWINT)));                   // Ожидание завершения
  e2:	80 91 bc 00 	lds	r24, 0x00BC	; 0x8000bc <__TEXT_REGION_LENGTH__+0x7f80bc>
  e6:	88 23       	and	r24, r24
  e8:	e4 f7       	brge	.-8      	; 0xe2 <I2C_Write+0xa>
}
  ea:	08 95       	ret

000000ec <LCD_Send>:

// --- Функции для управления LCD ---
void LCD_Send(uint8_t data, uint8_t mode) {
  ec:	0f 93       	push	r16
  ee:	1f 93       	push	r17
  f0:	cf 93       	push	r28
  f2:	df 93       	push	r29
	uint8_t highNibble = (data & 0xF0) | LCD_BACKLIGHT | mode;
  f4:	d8 2f       	mov	r29, r24
  f6:	d0 7f       	andi	r29, 0xF0	; 240
  f8:	d6 2b       	or	r29, r22
  fa:	0d 2f       	mov	r16, r29
  fc:	08 60       	ori	r16, 0x08	; 8
	uint8_t lowNibble = ((data << 4) & 0xF0) | LCD_BACKLIGHT | mode;
  fe:	20 e1       	ldi	r18, 0x10	; 16
 100:	82 9f       	mul	r24, r18
 102:	c0 01       	movw	r24, r0
 104:	11 24       	eor	r1, r1
 106:	c6 2f       	mov	r28, r22
 108:	c8 2b       	or	r28, r24
 10a:	1c 2f       	mov	r17, r28
 10c:	18 60       	ori	r17, 0x08	; 8

	I2C_Start();
 10e:	0e 94 5c 00 	call	0xb8	; 0xb8 <I2C_Start>
	I2C_Write(LCD_ADDRESS << 1); // Адрес устройства + бит записи
 112:	8e e4       	ldi	r24, 0x4E	; 78
 114:	0e 94 6c 00 	call	0xd8	; 0xd8 <I2C_Write>
	I2C_Write(highNibble);       // Отправка старших 4 бит
 118:	80 2f       	mov	r24, r16
 11a:	0e 94 6c 00 	call	0xd8	; 0xd8 <I2C_Write>
	I2C_Write(highNibble | 0x04); // Установка EN = 1
 11e:	8d 2f       	mov	r24, r29
 120:	8c 60       	ori	r24, 0x0C	; 12
 122:	0e 94 6c 00 	call	0xd8	; 0xd8 <I2C_Write>
	I2C_Write(highNibble);       // Сброс EN = 0
 126:	80 2f       	mov	r24, r16
 128:	0e 94 6c 00 	call	0xd8	; 0xd8 <I2C_Write>
	I2C_Write(lowNibble);        // Отправка младших 4 бит
 12c:	81 2f       	mov	r24, r17
 12e:	0e 94 6c 00 	call	0xd8	; 0xd8 <I2C_Write>
	I2C_Write(lowNibble | 0x04); // Установка EN = 1
 132:	8c 2f       	mov	r24, r28
 134:	8c 60       	ori	r24, 0x0C	; 12
 136:	0e 94 6c 00 	call	0xd8	; 0xd8 <I2C_Write>
	I2C_Write(lowNibble);        // Сброс EN = 0
 13a:	81 2f       	mov	r24, r17
 13c:	0e 94 6c 00 	call	0xd8	; 0xd8 <I2C_Write>
	I2C_Stop();
 140:	0e 94 64 00 	call	0xc8	; 0xc8 <I2C_Stop>
}
 144:	df 91       	pop	r29
 146:	cf 91       	pop	r28
 148:	1f 91       	pop	r17
 14a:	0f 91       	pop	r16
 14c:	08 95       	ret

0000014e <LCD_Command>:

void LCD_Command(uint8_t command) {
	LCD_Send(command, 0x00); // Передача команды (режим RS = 0)
 14e:	60 e0       	ldi	r22, 0x00	; 0
 150:	0e 94 76 00 	call	0xec	; 0xec <LCD_Send>
	#else
		//round up by default
		__ticks_dc = (uint32_t)(ceil(fabs(__tmp)));
	#endif

	__builtin_avr_delay_cycles(__ticks_dc);
 154:	8f e3       	ldi	r24, 0x3F	; 63
 156:	9f e1       	ldi	r25, 0x1F	; 31
 158:	01 97       	sbiw	r24, 0x01	; 1
 15a:	f1 f7       	brne	.-4      	; 0x158 <LCD_Command+0xa>
 15c:	00 c0       	rjmp	.+0      	; 0x15e <LCD_Command+0x10>
 15e:	00 00       	nop
 160:	08 95       	ret

00000162 <LCD_Data>:
	_delay_ms(2);            // Небольшая задержка
}

void LCD_Data(uint8_t data) {
	LCD_Send(data, 0x01);    // Передача данных (режим RS = 1)
 162:	61 e0       	ldi	r22, 0x01	; 1
 164:	0e 94 76 00 	call	0xec	; 0xec <LCD_Send>
 168:	8f e3       	ldi	r24, 0x3F	; 63
 16a:	9f e1       	ldi	r25, 0x1F	; 31
 16c:	01 97       	sbiw	r24, 0x01	; 1
 16e:	f1 f7       	brne	.-4      	; 0x16c <LCD_Data+0xa>
 170:	00 c0       	rjmp	.+0      	; 0x172 <LCD_Data+0x10>
 172:	00 00       	nop
 174:	08 95       	ret

00000176 <LCD_Init>:
 176:	2f ef       	ldi	r18, 0xFF	; 255
 178:	80 e7       	ldi	r24, 0x70	; 112
 17a:	92 e0       	ldi	r25, 0x02	; 2
 17c:	21 50       	subi	r18, 0x01	; 1
 17e:	80 40       	sbci	r24, 0x00	; 0
 180:	90 40       	sbci	r25, 0x00	; 0
 182:	e1 f7       	brne	.-8      	; 0x17c <LCD_Init+0x6>
 184:	00 c0       	rjmp	.+0      	; 0x186 <LCD_Init+0x10>
 186:	00 00       	nop
	_delay_ms(2);            // Небольшая задержка
}

void LCD_Init(void) {
	_delay_ms(50);           // Задержка после подачи питания
	LCD_Command(0x03);       // Режим 8-битной шины
 188:	83 e0       	ldi	r24, 0x03	; 3
 18a:	0e 94 a7 00 	call	0x14e	; 0x14e <LCD_Command>
 18e:	8f e1       	ldi	r24, 0x1F	; 31
 190:	9e e4       	ldi	r25, 0x4E	; 78
 192:	01 97       	sbiw	r24, 0x01	; 1
 194:	f1 f7       	brne	.-4      	; 0x192 <LCD_Init+0x1c>
 196:	00 c0       	rjmp	.+0      	; 0x198 <LCD_Init+0x22>
 198:	00 00       	nop
	_delay_ms(5);
	LCD_Command(0x03);       // Повтор команды
 19a:	83 e0       	ldi	r24, 0x03	; 3
 19c:	0e 94 a7 00 	call	0x14e	; 0x14e <LCD_Command>
	#else
		//round up by default
		__ticks_dc = (uint32_t)(ceil(fabs(__tmp)));
	#endif

	__builtin_avr_delay_cycles(__ticks_dc);
 1a0:	87 e5       	ldi	r24, 0x57	; 87
 1a2:	92 e0       	ldi	r25, 0x02	; 2
 1a4:	01 97       	sbiw	r24, 0x01	; 1
 1a6:	f1 f7       	brne	.-4      	; 0x1a4 <LCD_Init+0x2e>
 1a8:	00 c0       	rjmp	.+0      	; 0x1aa <LCD_Init+0x34>
 1aa:	00 00       	nop
	_delay_us(150);
	LCD_Command(0x03);       // Повтор команды
 1ac:	83 e0       	ldi	r24, 0x03	; 3
 1ae:	0e 94 a7 00 	call	0x14e	; 0x14e <LCD_Command>
	LCD_Command(0x02);       // Переход в 4-битный режим
 1b2:	82 e0       	ldi	r24, 0x02	; 2
 1b4:	0e 94 a7 00 	call	0x14e	; 0x14e <LCD_Command>

	// Конфигурация дисплея
	LCD_Command(0x28);       // 4-битный режим, 2 строки, 5x8 точки
 1b8:	88 e2       	ldi	r24, 0x28	; 40
 1ba:	0e 94 a7 00 	call	0x14e	; 0x14e <LCD_Command>
	LCD_Command(0x08);       // Выключить дисплей
 1be:	88 e0       	ldi	r24, 0x08	; 8
 1c0:	0e 94 a7 00 	call	0x14e	; 0x14e <LCD_Command>
	LCD_Command(0x01);       // Очистить дисплей
 1c4:	81 e0       	ldi	r24, 0x01	; 1
 1c6:	0e 94 a7 00 	call	0x14e	; 0x14e <LCD_Command>
	#else
		//round up by default
		__ticks_dc = (uint32_t)(ceil(fabs(__tmp)));
	#endif

	__builtin_avr_delay_cycles(__ticks_dc);
 1ca:	8f e3       	ldi	r24, 0x3F	; 63
 1cc:	9f e1       	ldi	r25, 0x1F	; 31
 1ce:	01 97       	sbiw	r24, 0x01	; 1
 1d0:	f1 f7       	brne	.-4      	; 0x1ce <LCD_Init+0x58>
 1d2:	00 c0       	rjmp	.+0      	; 0x1d4 <LCD_Init+0x5e>
 1d4:	00 00       	nop
	_delay_ms(2);
	LCD_Command(0x06);       // Инкремент курсора
 1d6:	86 e0       	ldi	r24, 0x06	; 6
 1d8:	0e 94 a7 00 	call	0x14e	; 0x14e <LCD_Command>
	LCD_Command(0x0C);       // Включить дисплей, курсор выключен
 1dc:	8c e0       	ldi	r24, 0x0C	; 12
 1de:	0e 94 a7 00 	call	0x14e	; 0x14e <LCD_Command>
 1e2:	08 95       	ret

000001e4 <LCD_Clear>:
}

void LCD_Clear(void) {
	LCD_Command(0x01);       // Очистка дисплея
 1e4:	81 e0       	ldi	r24, 0x01	; 1
 1e6:	0e 94 a7 00 	call	0x14e	; 0x14e <LCD_Command>
 1ea:	8f e3       	ldi	r24, 0x3F	; 63
 1ec:	9f e1       	ldi	r25, 0x1F	; 31
 1ee:	01 97       	sbiw	r24, 0x01	; 1
 1f0:	f1 f7       	brne	.-4      	; 0x1ee <LCD_Clear+0xa>
 1f2:	00 c0       	rjmp	.+0      	; 0x1f4 <LCD_Clear+0x10>
 1f4:	00 00       	nop
 1f6:	08 95       	ret

000001f8 <LCD_SetCursor>:
	_delay_ms(2);
}

void LCD_SetCursor(uint8_t col, uint8_t row) {
 1f8:	cf 93       	push	r28
 1fa:	df 93       	push	r29
 1fc:	00 d0       	rcall	.+0      	; 0x1fe <LCD_SetCursor+0x6>
 1fe:	00 d0       	rcall	.+0      	; 0x200 <LCD_SetCursor+0x8>
 200:	cd b7       	in	r28, 0x3d	; 61
 202:	de b7       	in	r29, 0x3e	; 62
	uint8_t row_offsets[] = {0x00, 0x40, 0x14, 0x54};
 204:	19 82       	std	Y+1, r1	; 0x01
 206:	90 e4       	ldi	r25, 0x40	; 64
 208:	9a 83       	std	Y+2, r25	; 0x02
 20a:	94 e1       	ldi	r25, 0x14	; 20
 20c:	9b 83       	std	Y+3, r25	; 0x03
 20e:	94 e5       	ldi	r25, 0x54	; 84
 210:	9c 83       	std	Y+4, r25	; 0x04
	LCD_Command(0x80 | (col + row_offsets[row])); // Установка адреса DDRAM
 212:	e1 e0       	ldi	r30, 0x01	; 1
 214:	f0 e0       	ldi	r31, 0x00	; 0
 216:	ec 0f       	add	r30, r28
 218:	fd 1f       	adc	r31, r29
 21a:	e6 0f       	add	r30, r22
 21c:	f1 1d       	adc	r31, r1
 21e:	90 81       	ld	r25, Z
 220:	89 0f       	add	r24, r25
 222:	80 68       	ori	r24, 0x80	; 128
 224:	0e 94 a7 00 	call	0x14e	; 0x14e <LCD_Command>
}
 228:	0f 90       	pop	r0
 22a:	0f 90       	pop	r0
 22c:	0f 90       	pop	r0
 22e:	0f 90       	pop	r0
 230:	df 91       	pop	r29
 232:	cf 91       	pop	r28
 234:	08 95       	ret

00000236 <LCD_Print>:

void LCD_Print(char* str) {
 236:	cf 93       	push	r28
 238:	df 93       	push	r29
 23a:	ec 01       	movw	r28, r24
	while (*str) {
 23c:	03 c0       	rjmp	.+6      	; 0x244 <LCD_Print+0xe>
		LCD_Data(*str++);
 23e:	21 96       	adiw	r28, 0x01	; 1
 240:	0e 94 b1 00 	call	0x162	; 0x162 <LCD_Data>
	uint8_t row_offsets[] = {0x00, 0x40, 0x14, 0x54};
	LCD_Command(0x80 | (col + row_offsets[row])); // Установка адреса DDRAM
}

void LCD_Print(char* str) {
	while (*str) {
 244:	88 81       	ld	r24, Y
 246:	81 11       	cpse	r24, r1
 248:	fa cf       	rjmp	.-12     	; 0x23e <LCD_Print+0x8>
		LCD_Data(*str++);
	}
}
 24a:	df 91       	pop	r29
 24c:	cf 91       	pop	r28
 24e:	08 95       	ret

00000250 <LCD_Blink>:

void LCD_Blink(char* buffer) {
 250:	af 92       	push	r10
 252:	bf 92       	push	r11
 254:	cf 92       	push	r12
 256:	df 92       	push	r13
 258:	ef 92       	push	r14
 25a:	ff 92       	push	r15
 25c:	0f 93       	push	r16
 25e:	1f 93       	push	r17
 260:	cf 93       	push	r28
 262:	df 93       	push	r29
 264:	cd b7       	in	r28, 0x3d	; 61
 266:	de b7       	in	r29, 0x3e	; 62
 268:	fc 01       	movw	r30, r24
		blankString[length] = '\0'; // Завершаем строку нулевым символом
		LCD_Print(blankString); // Печатаем пустую строку
		} else {
		LCD_Print(buffer); // Печатаем строку
	}
}
 26a:	0d b7       	in	r16, 0x3d	; 61
 26c:	1e b7       	in	r17, 0x3e	; 62

void LCD_Blink(char* buffer) {
	static uint8_t toggle = 0; // Флаг переключения
	static uint8_t counter = 0; // Счетчик для контроля мигания
	uint8_t blinkCyclesNumber = 20; // Количество циклов между миганиями
	uint8_t length = strlen(buffer); // Длина строки
 26e:	dc 01       	movw	r26, r24
 270:	0d 90       	ld	r0, X+
 272:	00 20       	and	r0, r0
 274:	e9 f7       	brne	.-6      	; 0x270 <LCD_Blink+0x20>
 276:	11 97       	sbiw	r26, 0x01	; 1
 278:	9d 01       	movw	r18, r26
 27a:	28 1b       	sub	r18, r24
 27c:	39 0b       	sbc	r19, r25
	
	counter = (counter + 1) % 255; // Предотвращение переполнения
 27e:	80 91 1d 01 	lds	r24, 0x011D	; 0x80011d <counter.1812>
 282:	90 e0       	ldi	r25, 0x00	; 0
 284:	01 96       	adiw	r24, 0x01	; 1
 286:	6f ef       	ldi	r22, 0xFF	; 255
 288:	70 e0       	ldi	r23, 0x00	; 0
 28a:	0e 94 45 02 	call	0x48a	; 0x48a <__divmodhi4>
 28e:	80 93 1d 01 	sts	0x011D, r24	; 0x80011d <counter.1812>

	if (counter % blinkCyclesNumber == 0) {
 292:	9d ec       	ldi	r25, 0xCD	; 205
 294:	89 9f       	mul	r24, r25
 296:	91 2d       	mov	r25, r1
 298:	11 24       	eor	r1, r1
 29a:	92 95       	swap	r25
 29c:	9f 70       	andi	r25, 0x0F	; 15
 29e:	99 0f       	add	r25, r25
 2a0:	99 0f       	add	r25, r25
 2a2:	49 2f       	mov	r20, r25
 2a4:	44 0f       	add	r20, r20
 2a6:	44 0f       	add	r20, r20
 2a8:	94 0f       	add	r25, r20
 2aa:	98 13       	cpse	r25, r24
 2ac:	07 c0       	rjmp	.+14     	; 0x2bc <LCD_Blink+0x6c>
		toggle = !toggle; // Меняем состояние
 2ae:	81 e0       	ldi	r24, 0x01	; 1
 2b0:	90 91 1c 01 	lds	r25, 0x011C	; 0x80011c <__data_end>
 2b4:	91 11       	cpse	r25, r1
 2b6:	80 e0       	ldi	r24, 0x00	; 0
 2b8:	80 93 1c 01 	sts	0x011C, r24	; 0x80011c <__data_end>
	}

	if (toggle) {
 2bc:	80 91 1c 01 	lds	r24, 0x011C	; 0x80011c <__data_end>
 2c0:	88 23       	and	r24, r24
 2c2:	29 f1       	breq	.+74     	; 0x30e <LCD_Blink+0xbe>
 2c4:	cd b6       	in	r12, 0x3d	; 61
 2c6:	de b6       	in	r13, 0x3e	; 62
 2c8:	79 01       	movw	r14, r18
 2ca:	ff 24       	eor	r15, r15
		// Создаем строку из пробелов такой же длины, как buffer
		char blankString[length + 1];
 2cc:	c7 01       	movw	r24, r14
 2ce:	01 96       	adiw	r24, 0x01	; 1
 2d0:	2d b7       	in	r18, 0x3d	; 61
 2d2:	3e b7       	in	r19, 0x3e	; 62
 2d4:	28 1b       	sub	r18, r24
 2d6:	39 0b       	sbc	r19, r25
 2d8:	0f b6       	in	r0, 0x3f	; 63
 2da:	f8 94       	cli
 2dc:	3e bf       	out	0x3e, r19	; 62
 2de:	0f be       	out	0x3f, r0	; 63
 2e0:	2d bf       	out	0x3d, r18	; 61
 2e2:	8d b7       	in	r24, 0x3d	; 61
 2e4:	9e b7       	in	r25, 0x3e	; 62
 2e6:	01 96       	adiw	r24, 0x01	; 1
 2e8:	5c 01       	movw	r10, r24
		memset(blankString, ' ', length);
 2ea:	a7 01       	movw	r20, r14
 2ec:	60 e2       	ldi	r22, 0x20	; 32
 2ee:	70 e0       	ldi	r23, 0x00	; 0
 2f0:	0e 94 6d 02 	call	0x4da	; 0x4da <memset>
		blankString[length] = '\0'; // Завершаем строку нулевым символом
 2f4:	f5 01       	movw	r30, r10
 2f6:	ee 0d       	add	r30, r14
 2f8:	ff 1d       	adc	r31, r15
 2fa:	10 82       	st	Z, r1
		LCD_Print(blankString); // Печатаем пустую строку
 2fc:	c5 01       	movw	r24, r10
 2fe:	0e 94 1b 01 	call	0x236	; 0x236 <LCD_Print>
 302:	0f b6       	in	r0, 0x3f	; 63
 304:	f8 94       	cli
 306:	de be       	out	0x3e, r13	; 62
 308:	0f be       	out	0x3f, r0	; 63
 30a:	cd be       	out	0x3d, r12	; 61
 30c:	03 c0       	rjmp	.+6      	; 0x314 <LCD_Blink+0xc4>
		} else {
		LCD_Print(buffer); // Печатаем строку
 30e:	cf 01       	movw	r24, r30
 310:	0e 94 1b 01 	call	0x236	; 0x236 <LCD_Print>
	}
}
 314:	0f b6       	in	r0, 0x3f	; 63
 316:	f8 94       	cli
 318:	1e bf       	out	0x3e, r17	; 62
 31a:	0f be       	out	0x3f, r0	; 63
 31c:	0d bf       	out	0x3d, r16	; 61
 31e:	df 91       	pop	r29
 320:	cf 91       	pop	r28
 322:	1f 91       	pop	r17
 324:	0f 91       	pop	r16
 326:	ff 90       	pop	r15
 328:	ef 90       	pop	r14
 32a:	df 90       	pop	r13
 32c:	cf 90       	pop	r12
 32e:	bf 90       	pop	r11
 330:	af 90       	pop	r10
 332:	08 95       	ret

00000334 <LCD_PrintTwoLines>:


void LCD_PrintTwoLines(char* firstLineText, char* secondLineText, int blink) {
 334:	ef 92       	push	r14
 336:	ff 92       	push	r15
 338:	0f 93       	push	r16
 33a:	1f 93       	push	r17
 33c:	cf 93       	push	r28
 33e:	df 93       	push	r29
 340:	8c 01       	movw	r16, r24
 342:	7b 01       	movw	r14, r22
 344:	ea 01       	movw	r28, r20
	
		LCD_SetCursor(0, 0);
 346:	60 e0       	ldi	r22, 0x00	; 0
 348:	80 e0       	ldi	r24, 0x00	; 0
 34a:	0e 94 fc 00 	call	0x1f8	; 0x1f8 <LCD_SetCursor>
		LCD_Print(firstLineText);
 34e:	c8 01       	movw	r24, r16
 350:	0e 94 1b 01 	call	0x236	; 0x236 <LCD_Print>
		LCD_SetCursor(0, 1);
 354:	61 e0       	ldi	r22, 0x01	; 1
 356:	80 e0       	ldi	r24, 0x00	; 0
 358:	0e 94 fc 00 	call	0x1f8	; 0x1f8 <LCD_SetCursor>
		
		if (blink == 1)	{
 35c:	21 97       	sbiw	r28, 0x01	; 1
 35e:	21 f4       	brne	.+8      	; 0x368 <LCD_PrintTwoLines+0x34>
			LCD_Blink(secondLineText);
 360:	c7 01       	movw	r24, r14
 362:	0e 94 28 01 	call	0x250	; 0x250 <LCD_Blink>
 366:	03 c0       	rjmp	.+6      	; 0x36e <LCD_PrintTwoLines+0x3a>
		}
		else {
			LCD_Print(secondLineText);			
 368:	c7 01       	movw	r24, r14
 36a:	0e 94 1b 01 	call	0x236	; 0x236 <LCD_Print>
		}
}
 36e:	df 91       	pop	r29
 370:	cf 91       	pop	r28
 372:	1f 91       	pop	r17
 374:	0f 91       	pop	r16
 376:	ff 90       	pop	r15
 378:	ef 90       	pop	r14
 37a:	08 95       	ret

0000037c <main>:

char firstLineText[16]; // Text for the first line
char secondLineText[16]; // Text for the second line

int main(void)
{
 37c:	cf 93       	push	r28
 37e:	df 93       	push	r29
 380:	cd b7       	in	r28, 0x3d	; 61
 382:	de b7       	in	r29, 0x3e	; 62
 384:	a8 97       	sbiw	r28, 0x28	; 40
 386:	0f b6       	in	r0, 0x3f	; 63
 388:	f8 94       	cli
 38a:	de bf       	out	0x3e, r29	; 62
 38c:	0f be       	out	0x3f, r0	; 63
 38e:	cd bf       	out	0x3d, r28	; 61
	// Module initialization
	I2C_Init();
 390:	0e 94 53 00 	call	0xa6	; 0xa6 <I2C_Init>
	LCD_Init();	
 394:	0e 94 bb 00 	call	0x176	; 0x176 <LCD_Init>
	LCD_Clear();
 398:	0e 94 f2 00 	call	0x1e4	; 0x1e4 <LCD_Clear>
	
	initRailRoadSwitch();
 39c:	0e 94 0d 02 	call	0x41a	; 0x41a <initRailRoadSwitch>
    char firstLineText[20];
    char secondLineText[20];

	
    while (1) {
        snprintf(firstLineText, sizeof(firstLineText), "Table" );
 3a0:	86 e0       	ldi	r24, 0x06	; 6
 3a2:	e0 e0       	ldi	r30, 0x00	; 0
 3a4:	f1 e0       	ldi	r31, 0x01	; 1
 3a6:	de 01       	movw	r26, r28
 3a8:	11 96       	adiw	r26, 0x01	; 1
 3aa:	01 90       	ld	r0, Z+
 3ac:	0d 92       	st	X+, r0
 3ae:	8a 95       	dec	r24
 3b0:	e1 f7       	brne	.-8      	; 0x3aa <main+0x2e>
        snprintf(secondLineText, sizeof(secondLineText),"Right");
 3b2:	86 e0       	ldi	r24, 0x06	; 6
 3b4:	e6 e0       	ldi	r30, 0x06	; 6
 3b6:	f1 e0       	ldi	r31, 0x01	; 1
 3b8:	de 01       	movw	r26, r28
 3ba:	55 96       	adiw	r26, 0x15	; 21
 3bc:	01 90       	ld	r0, Z+
 3be:	0d 92       	st	X+, r0
 3c0:	8a 95       	dec	r24
 3c2:	e1 f7       	brne	.-8      	; 0x3bc <main+0x40>

        LCD_PrintTwoLines(firstLineText, secondLineText, 0);
 3c4:	40 e0       	ldi	r20, 0x00	; 0
 3c6:	50 e0       	ldi	r21, 0x00	; 0
 3c8:	be 01       	movw	r22, r28
 3ca:	6b 5e       	subi	r22, 0xEB	; 235
 3cc:	7f 4f       	sbci	r23, 0xFF	; 255
 3ce:	ce 01       	movw	r24, r28
 3d0:	01 96       	adiw	r24, 0x01	; 1
 3d2:	0e 94 9a 01 	call	0x334	; 0x334 <LCD_PrintTwoLines>
 3d6:	2f ef       	ldi	r18, 0xFF	; 255
 3d8:	85 ea       	ldi	r24, 0xA5	; 165
 3da:	9e e0       	ldi	r25, 0x0E	; 14
 3dc:	21 50       	subi	r18, 0x01	; 1
 3de:	80 40       	sbci	r24, 0x00	; 0
 3e0:	90 40       	sbci	r25, 0x00	; 0
 3e2:	e1 f7       	brne	.-8      	; 0x3dc <main+0x60>
 3e4:	00 c0       	rjmp	.+0      	; 0x3e6 <main+0x6a>
 3e6:	00 00       	nop
        _delay_ms(300);

		//setRouteByIndex(7); 
		moveLocomotive(1);
 3e8:	81 e0       	ldi	r24, 0x01	; 1
 3ea:	0e 94 35 02 	call	0x46a	; 0x46a <moveLocomotive>
 3ee:	2f ef       	ldi	r18, 0xFF	; 255
 3f0:	83 ed       	ldi	r24, 0xD3	; 211
 3f2:	90 e3       	ldi	r25, 0x30	; 48
 3f4:	21 50       	subi	r18, 0x01	; 1
 3f6:	80 40       	sbci	r24, 0x00	; 0
 3f8:	90 40       	sbci	r25, 0x00	; 0
 3fa:	e1 f7       	brne	.-8      	; 0x3f4 <main+0x78>
 3fc:	00 c0       	rjmp	.+0      	; 0x3fe <main+0x82>
 3fe:	00 00       	nop
		_delay_ms(1000);
		moveLocomotive(0);
 400:	80 e0       	ldi	r24, 0x00	; 0
 402:	0e 94 35 02 	call	0x46a	; 0x46a <moveLocomotive>
 406:	2f ef       	ldi	r18, 0xFF	; 255
 408:	83 ed       	ldi	r24, 0xD3	; 211
 40a:	90 e3       	ldi	r25, 0x30	; 48
 40c:	21 50       	subi	r18, 0x01	; 1
 40e:	80 40       	sbci	r24, 0x00	; 0
 410:	90 40       	sbci	r25, 0x00	; 0
 412:	e1 f7       	brne	.-8      	; 0x40c <__EEPROM_REGION_LENGTH__+0xc>
 414:	00 c0       	rjmp	.+0      	; 0x416 <__EEPROM_REGION_LENGTH__+0x16>
 416:	00 00       	nop
 418:	c3 cf       	rjmp	.-122    	; 0x3a0 <main+0x24>

0000041a <initRailRoadSwitch>:
	if (index >= NUM_ROUTES || routes[index].length > 8) return;

	clearChannels();

	setPath(routes[index].path, routes[index].length);
}
 41a:	84 b1       	in	r24, 0x04	; 4
 41c:	8d 61       	ori	r24, 0x1D	; 29
 41e:	84 b9       	out	0x04, r24	; 4
 420:	8a b1       	in	r24, 0x0a	; 10
 422:	80 68       	ori	r24, 0x80	; 128
 424:	8a b9       	out	0x0a, r24	; 10
 426:	85 b1       	in	r24, 0x05	; 5
 428:	82 7e       	andi	r24, 0xE2	; 226
 42a:	85 b9       	out	0x05, r24	; 5
 42c:	8b b1       	in	r24, 0x0b	; 11
 42e:	8f 77       	andi	r24, 0x7F	; 127
 430:	8b b9       	out	0x0b, r24	; 11
 432:	08 95       	ret

00000434 <selectChannel>:
 434:	9f ef       	ldi	r25, 0xFF	; 255
 436:	98 0f       	add	r25, r24
 438:	90 31       	cpi	r25, 0x10	; 16
 43a:	60 f4       	brcc	.+24     	; 0x454 <selectChannel+0x20>
 43c:	95 b1       	in	r25, 0x05	; 5
 43e:	92 7e       	andi	r25, 0xE2	; 226
 440:	95 b9       	out	0x05, r25	; 5
 442:	95 b1       	in	r25, 0x05	; 5
 444:	e8 2f       	mov	r30, r24
 446:	f0 e0       	ldi	r31, 0x00	; 0
 448:	e5 5f       	subi	r30, 0xF5	; 245
 44a:	fe 4f       	sbci	r31, 0xFE	; 254
 44c:	80 81       	ld	r24, Z
 44e:	8d 71       	andi	r24, 0x1D	; 29
 450:	89 2b       	or	r24, r25
 452:	85 b9       	out	0x05, r24	; 5
 454:	08 95       	ret

00000456 <clearChannels>:
 456:	8b b1       	in	r24, 0x0b	; 11
 458:	8f 77       	andi	r24, 0x7F	; 127
 45a:	8b b9       	out	0x0b, r24	; 11
 45c:	85 b1       	in	r24, 0x05	; 5
 45e:	82 7e       	andi	r24, 0xE2	; 226
 460:	85 b9       	out	0x05, r24	; 5
 462:	08 95       	ret

00000464 <stopLocomotive>:
	PORTD |= (1 << SIG);  // Включаем сигнал движения
}

void stopLocomotive() {

	clearChannels();
 464:	0e 94 2b 02 	call	0x456	; 0x456 <clearChannels>
 468:	08 95       	ret

0000046a <moveLocomotive>:
	clearChannels();

	setPath(routes[index].path, routes[index].length);
}

void moveLocomotive(uint8_t forward) {
 46a:	cf 93       	push	r28
 46c:	c8 2f       	mov	r28, r24
	stopLocomotive();
 46e:	0e 94 32 02 	call	0x464	; 0x464 <stopLocomotive>
	
	uint8_t channel = forward ? 15 : 14;  // 15 - вперёд, 14 - назад
 472:	cc 23       	and	r28, r28
 474:	11 f0       	breq	.+4      	; 0x47a <moveLocomotive+0x10>
 476:	8f e0       	ldi	r24, 0x0F	; 15
 478:	01 c0       	rjmp	.+2      	; 0x47c <moveLocomotive+0x12>
 47a:	8e e0       	ldi	r24, 0x0E	; 14

	selectChannel(channel);
 47c:	0e 94 1a 02 	call	0x434	; 0x434 <selectChannel>
	
	PORTD |= (1 << SIG);  // Включаем сигнал движения
 480:	8b b1       	in	r24, 0x0b	; 11
 482:	80 68       	ori	r24, 0x80	; 128
 484:	8b b9       	out	0x0b, r24	; 11
}
 486:	cf 91       	pop	r28
 488:	08 95       	ret

0000048a <__divmodhi4>:
 48a:	97 fb       	bst	r25, 7
 48c:	07 2e       	mov	r0, r23
 48e:	16 f4       	brtc	.+4      	; 0x494 <__divmodhi4+0xa>
 490:	00 94       	com	r0
 492:	07 d0       	rcall	.+14     	; 0x4a2 <__divmodhi4_neg1>
 494:	77 fd       	sbrc	r23, 7
 496:	09 d0       	rcall	.+18     	; 0x4aa <__divmodhi4_neg2>
 498:	0e 94 59 02 	call	0x4b2	; 0x4b2 <__udivmodhi4>
 49c:	07 fc       	sbrc	r0, 7
 49e:	05 d0       	rcall	.+10     	; 0x4aa <__divmodhi4_neg2>
 4a0:	3e f4       	brtc	.+14     	; 0x4b0 <__divmodhi4_exit>

000004a2 <__divmodhi4_neg1>:
 4a2:	90 95       	com	r25
 4a4:	81 95       	neg	r24
 4a6:	9f 4f       	sbci	r25, 0xFF	; 255
 4a8:	08 95       	ret

000004aa <__divmodhi4_neg2>:
 4aa:	70 95       	com	r23
 4ac:	61 95       	neg	r22
 4ae:	7f 4f       	sbci	r23, 0xFF	; 255

000004b0 <__divmodhi4_exit>:
 4b0:	08 95       	ret

000004b2 <__udivmodhi4>:
 4b2:	aa 1b       	sub	r26, r26
 4b4:	bb 1b       	sub	r27, r27
 4b6:	51 e1       	ldi	r21, 0x11	; 17
 4b8:	07 c0       	rjmp	.+14     	; 0x4c8 <__udivmodhi4_ep>

000004ba <__udivmodhi4_loop>:
 4ba:	aa 1f       	adc	r26, r26
 4bc:	bb 1f       	adc	r27, r27
 4be:	a6 17       	cp	r26, r22
 4c0:	b7 07       	cpc	r27, r23
 4c2:	10 f0       	brcs	.+4      	; 0x4c8 <__udivmodhi4_ep>
 4c4:	a6 1b       	sub	r26, r22
 4c6:	b7 0b       	sbc	r27, r23

000004c8 <__udivmodhi4_ep>:
 4c8:	88 1f       	adc	r24, r24
 4ca:	99 1f       	adc	r25, r25
 4cc:	5a 95       	dec	r21
 4ce:	a9 f7       	brne	.-22     	; 0x4ba <__udivmodhi4_loop>
 4d0:	80 95       	com	r24
 4d2:	90 95       	com	r25
 4d4:	bc 01       	movw	r22, r24
 4d6:	cd 01       	movw	r24, r26
 4d8:	08 95       	ret

000004da <memset>:
 4da:	dc 01       	movw	r26, r24
 4dc:	01 c0       	rjmp	.+2      	; 0x4e0 <memset+0x6>
 4de:	6d 93       	st	X+, r22
 4e0:	41 50       	subi	r20, 0x01	; 1
 4e2:	50 40       	sbci	r21, 0x00	; 0
 4e4:	e0 f7       	brcc	.-8      	; 0x4de <memset+0x4>
 4e6:	08 95       	ret

000004e8 <_exit>:
 4e8:	f8 94       	cli

000004ea <__stop_program>:
 4ea:	ff cf       	rjmp	.-2      	; 0x4ea <__stop_program>
