
CafeTrainAtmega328.elf:     file format elf32-avr

Sections:
Idx Name          Size      VMA       LMA       File off  Algn
  0 .data         00000046  00800100  00001228  000012bc  2**0
                  CONTENTS, ALLOC, LOAD, DATA
  1 .text         00001228  00000000  00000000  00000094  2**1
                  CONTENTS, ALLOC, LOAD, READONLY, CODE
  2 .bss          00000014  00800146  00800146  00001302  2**0
                  ALLOC
  3 .comment      0000005c  00000000  00000000  00001302  2**0
                  CONTENTS, READONLY
  4 .note.gnu.avr.deviceinfo 00000040  00000000  00000000  00001360  2**2
                  CONTENTS, READONLY
  5 .debug_aranges 00000270  00000000  00000000  000013a0  2**0
                  CONTENTS, READONLY, DEBUGGING
  6 .debug_info   00002303  00000000  00000000  00001610  2**0
                  CONTENTS, READONLY, DEBUGGING
  7 .debug_abbrev 00001139  00000000  00000000  00003913  2**0
                  CONTENTS, READONLY, DEBUGGING
  8 .debug_line   0000143d  00000000  00000000  00004a4c  2**0
                  CONTENTS, READONLY, DEBUGGING
  9 .debug_frame  0000058c  00000000  00000000  00005e8c  2**2
                  CONTENTS, READONLY, DEBUGGING
 10 .debug_str    000009ed  00000000  00000000  00006418  2**0
                  CONTENTS, READONLY, DEBUGGING
 11 .debug_loc    000010df  00000000  00000000  00006e05  2**0
                  CONTENTS, READONLY, DEBUGGING
 12 .debug_ranges 00000210  00000000  00000000  00007ee4  2**0
                  CONTENTS, READONLY, DEBUGGING

Disassembly of section .text:

00000000 <__vectors>:
       0:	0c 94 34 00 	jmp	0x68	; 0x68 <__ctors_end>
       4:	0c 94 51 00 	jmp	0xa2	; 0xa2 <__bad_interrupt>
       8:	0c 94 51 00 	jmp	0xa2	; 0xa2 <__bad_interrupt>
       c:	0c 94 51 00 	jmp	0xa2	; 0xa2 <__bad_interrupt>
      10:	0c 94 51 00 	jmp	0xa2	; 0xa2 <__bad_interrupt>
      14:	0c 94 51 00 	jmp	0xa2	; 0xa2 <__bad_interrupt>
      18:	0c 94 51 00 	jmp	0xa2	; 0xa2 <__bad_interrupt>
      1c:	0c 94 51 00 	jmp	0xa2	; 0xa2 <__bad_interrupt>
      20:	0c 94 51 00 	jmp	0xa2	; 0xa2 <__bad_interrupt>
      24:	0c 94 51 00 	jmp	0xa2	; 0xa2 <__bad_interrupt>
      28:	0c 94 51 00 	jmp	0xa2	; 0xa2 <__bad_interrupt>
      2c:	0c 94 51 00 	jmp	0xa2	; 0xa2 <__bad_interrupt>
      30:	0c 94 51 00 	jmp	0xa2	; 0xa2 <__bad_interrupt>
      34:	0c 94 51 00 	jmp	0xa2	; 0xa2 <__bad_interrupt>
      38:	0c 94 23 05 	jmp	0xa46	; 0xa46 <__vector_14>
      3c:	0c 94 51 00 	jmp	0xa2	; 0xa2 <__bad_interrupt>
      40:	0c 94 51 00 	jmp	0xa2	; 0xa2 <__bad_interrupt>
      44:	0c 94 51 00 	jmp	0xa2	; 0xa2 <__bad_interrupt>
      48:	0c 94 51 00 	jmp	0xa2	; 0xa2 <__bad_interrupt>
      4c:	0c 94 51 00 	jmp	0xa2	; 0xa2 <__bad_interrupt>
      50:	0c 94 51 00 	jmp	0xa2	; 0xa2 <__bad_interrupt>
      54:	0c 94 51 00 	jmp	0xa2	; 0xa2 <__bad_interrupt>
      58:	0c 94 51 00 	jmp	0xa2	; 0xa2 <__bad_interrupt>
      5c:	0c 94 51 00 	jmp	0xa2	; 0xa2 <__bad_interrupt>
      60:	0c 94 51 00 	jmp	0xa2	; 0xa2 <__bad_interrupt>
      64:	0c 94 51 00 	jmp	0xa2	; 0xa2 <__bad_interrupt>

00000068 <__ctors_end>:
      68:	11 24       	eor	r1, r1
      6a:	1f be       	out	0x3f, r1	; 63
      6c:	cf ef       	ldi	r28, 0xFF	; 255
      6e:	d8 e0       	ldi	r29, 0x08	; 8
      70:	de bf       	out	0x3e, r29	; 62
      72:	cd bf       	out	0x3d, r28	; 61

00000074 <__do_copy_data>:
      74:	11 e0       	ldi	r17, 0x01	; 1
      76:	a0 e0       	ldi	r26, 0x00	; 0
      78:	b1 e0       	ldi	r27, 0x01	; 1
      7a:	e8 e2       	ldi	r30, 0x28	; 40
      7c:	f2 e1       	ldi	r31, 0x12	; 18
      7e:	02 c0       	rjmp	.+4      	; 0x84 <__do_copy_data+0x10>
      80:	05 90       	lpm	r0, Z+
      82:	0d 92       	st	X+, r0
      84:	a6 34       	cpi	r26, 0x46	; 70
      86:	b1 07       	cpc	r27, r17
      88:	d9 f7       	brne	.-10     	; 0x80 <__do_copy_data+0xc>

0000008a <__do_clear_bss>:
      8a:	21 e0       	ldi	r18, 0x01	; 1
      8c:	a6 e4       	ldi	r26, 0x46	; 70
      8e:	b1 e0       	ldi	r27, 0x01	; 1
      90:	01 c0       	rjmp	.+2      	; 0x94 <.do_clear_bss_start>

00000092 <.do_clear_bss_loop>:
      92:	1d 92       	st	X+, r1

00000094 <.do_clear_bss_start>:
      94:	aa 35       	cpi	r26, 0x5A	; 90
      96:	b2 07       	cpc	r27, r18
      98:	e1 f7       	brne	.-8      	; 0x92 <.do_clear_bss_loop>
      9a:	0e 94 4b 03 	call	0x696	; 0x696 <main>
      9e:	0c 94 12 09 	jmp	0x1224	; 0x1224 <_exit>

000000a2 <__bad_interrupt>:
      a2:	0c 94 00 00 	jmp	0	; 0x0 <__vectors>

000000a6 <system_init>:

#include <avr/interrupt.h>

uint8_t routeSetupInProgress = 0;

void system_init(void) {
      a6:	cf 93       	push	r28
      a8:	df 93       	push	r29
      aa:	00 d0       	rcall	.+0      	; 0xac <system_init+0x6>
      ac:	1f 92       	push	r1
      ae:	cd b7       	in	r28, 0x3d	; 61
      b0:	de b7       	in	r29, 0x3e	; 62
	I2C_Init();
      b2:	0e 94 8d 00 	call	0x11a	; 0x11a <I2C_Init>
	LCD_Init();
      b6:	0e 94 f5 00 	call	0x1ea	; 0x1ea <LCD_Init>
	LCD_Clear();
      ba:	0e 94 2c 01 	call	0x258	; 0x258 <LCD_Clear>

	UART_init();
      be:	0e 94 3a 05 	call	0xa74	; 0xa74 <UART_init>
	timer0_init();
      c2:	0e 94 12 05 	call	0xa24	; 0xa24 <timer0_init>

	init_74HC165_ports();
      c6:	0e 94 f5 04 	call	0x9ea	; 0x9ea <init_74HC165_ports>
	init_74HC595_ports();
      ca:	0e 94 ad 04 	call	0x95a	; 0x95a <init_74HC595_ports>
	
	initPWM();
      ce:	0e 94 68 03 	call	0x6d0	; 0x6d0 <initPWM>
	disablePWM(); // čçáŕâë˙ĺěń˙ îň ďŕđŕçčňíîăî ńâĺ÷ĺíč˙
      d2:	0e 94 83 03 	call	0x706	; 0x706 <disablePWM>
	
	DDRB |= (1 << REVERS_PIN);
      d6:	84 b1       	in	r24, 0x04	; 4
      d8:	80 62       	ori	r24, 0x20	; 32
      da:	84 b9       	out	0x04, r24	; 4
	DDRB |= (1 << REGISTER_SWITCH);
      dc:	84 b1       	in	r24, 0x04	; 4
      de:	81 60       	ori	r24, 0x01	; 1
      e0:	84 b9       	out	0x04, r24	; 4
	DDRB |= (1 << PWM_SWITCH_PIN);
      e2:	84 b1       	in	r24, 0x04	; 4
      e4:	80 61       	ori	r24, 0x10	; 16
      e6:	84 b9       	out	0x04, r24	; 4
	
	// Î÷čńňęŕ đĺăčńňđîâ ďđč ńňŕđňĺ
	uint8_t initData[NUM_OF_74HC595] = {0};
      e8:	19 82       	std	Y+1, r1	; 0x01
      ea:	1a 82       	std	Y+2, r1	; 0x02
      ec:	1b 82       	std	Y+3, r1	; 0x03
	shiftOutMultiple(initData, NUM_OF_74HC595);
      ee:	63 e0       	ldi	r22, 0x03	; 3
      f0:	ce 01       	movw	r24, r28
      f2:	01 96       	adiw	r24, 0x01	; 1
      f4:	0e 94 dd 04 	call	0x9ba	; 0x9ba <shiftOutMultiple>
	
	PowerSupplyOff();
      f8:	0e 94 a6 02 	call	0x54c	; 0x54c <PowerSupplyOff>

	sei(); // Âęëţ÷ŕĺě ăëîáŕëüíűĺ ďđĺđűâŕíč˙
      fc:	78 94       	sei

	LCD_PrintTwoLines("Waiting for Cmd", "Cmd: ?", 0);
      fe:	40 e0       	ldi	r20, 0x00	; 0
     100:	50 e0       	ldi	r21, 0x00	; 0
     102:	63 e0       	ldi	r22, 0x03	; 3
     104:	71 e0       	ldi	r23, 0x01	; 1
     106:	8a e0       	ldi	r24, 0x0A	; 10
     108:	91 e0       	ldi	r25, 0x01	; 1
     10a:	0e 94 d4 01 	call	0x3a8	; 0x3a8 <LCD_PrintTwoLines>
	
}
     10e:	0f 90       	pop	r0
     110:	0f 90       	pop	r0
     112:	0f 90       	pop	r0
     114:	df 91       	pop	r29
     116:	cf 91       	pop	r28
     118:	08 95       	ret

0000011a <I2C_Init>:
	LCD_SetCursor(0, row);
	for (uint8_t i = 0; i < 16; i++) {
		LCD_Data(' ');
	}
	LCD_SetCursor(0, row);  // âĺđíóňüń˙ â íŕ÷ŕëî ńňđîęč
}
     11a:	10 92 b9 00 	sts	0x00B9, r1	; 0x8000b9 <__TEXT_REGION_LENGTH__+0x7f80b9>
     11e:	88 e4       	ldi	r24, 0x48	; 72
     120:	80 93 b8 00 	sts	0x00B8, r24	; 0x8000b8 <__TEXT_REGION_LENGTH__+0x7f80b8>
     124:	84 e0       	ldi	r24, 0x04	; 4
     126:	80 93 bc 00 	sts	0x00BC, r24	; 0x8000bc <__TEXT_REGION_LENGTH__+0x7f80bc>
     12a:	08 95       	ret

0000012c <I2C_Start>:
     12c:	84 ea       	ldi	r24, 0xA4	; 164
     12e:	80 93 bc 00 	sts	0x00BC, r24	; 0x8000bc <__TEXT_REGION_LENGTH__+0x7f80bc>
     132:	80 91 bc 00 	lds	r24, 0x00BC	; 0x8000bc <__TEXT_REGION_LENGTH__+0x7f80bc>
     136:	88 23       	and	r24, r24
     138:	e4 f7       	brge	.-8      	; 0x132 <I2C_Start+0x6>
     13a:	08 95       	ret

0000013c <I2C_Stop>:
     13c:	84 e9       	ldi	r24, 0x94	; 148
     13e:	80 93 bc 00 	sts	0x00BC, r24	; 0x8000bc <__TEXT_REGION_LENGTH__+0x7f80bc>
     142:	80 91 bc 00 	lds	r24, 0x00BC	; 0x8000bc <__TEXT_REGION_LENGTH__+0x7f80bc>
     146:	84 fd       	sbrc	r24, 4
     148:	fc cf       	rjmp	.-8      	; 0x142 <I2C_Stop+0x6>
     14a:	08 95       	ret

0000014c <I2C_Write>:
     14c:	80 93 bb 00 	sts	0x00BB, r24	; 0x8000bb <__TEXT_REGION_LENGTH__+0x7f80bb>
     150:	84 e8       	ldi	r24, 0x84	; 132
     152:	80 93 bc 00 	sts	0x00BC, r24	; 0x8000bc <__TEXT_REGION_LENGTH__+0x7f80bc>
     156:	80 91 bc 00 	lds	r24, 0x00BC	; 0x8000bc <__TEXT_REGION_LENGTH__+0x7f80bc>
     15a:	88 23       	and	r24, r24
     15c:	e4 f7       	brge	.-8      	; 0x156 <I2C_Write+0xa>
     15e:	08 95       	ret

00000160 <LCD_Send>:
     160:	0f 93       	push	r16
     162:	1f 93       	push	r17
     164:	cf 93       	push	r28
     166:	df 93       	push	r29
     168:	d8 2f       	mov	r29, r24
     16a:	d0 7f       	andi	r29, 0xF0	; 240
     16c:	d6 2b       	or	r29, r22
     16e:	0d 2f       	mov	r16, r29
     170:	08 60       	ori	r16, 0x08	; 8
     172:	20 e1       	ldi	r18, 0x10	; 16
     174:	82 9f       	mul	r24, r18
     176:	c0 01       	movw	r24, r0
     178:	11 24       	eor	r1, r1
     17a:	c6 2f       	mov	r28, r22
     17c:	c8 2b       	or	r28, r24
     17e:	1c 2f       	mov	r17, r28
     180:	18 60       	ori	r17, 0x08	; 8
     182:	0e 94 96 00 	call	0x12c	; 0x12c <I2C_Start>
     186:	8e e4       	ldi	r24, 0x4E	; 78
     188:	0e 94 a6 00 	call	0x14c	; 0x14c <I2C_Write>
     18c:	80 2f       	mov	r24, r16
     18e:	0e 94 a6 00 	call	0x14c	; 0x14c <I2C_Write>
     192:	8d 2f       	mov	r24, r29
     194:	8c 60       	ori	r24, 0x0C	; 12
     196:	0e 94 a6 00 	call	0x14c	; 0x14c <I2C_Write>
     19a:	80 2f       	mov	r24, r16
     19c:	0e 94 a6 00 	call	0x14c	; 0x14c <I2C_Write>
     1a0:	81 2f       	mov	r24, r17
     1a2:	0e 94 a6 00 	call	0x14c	; 0x14c <I2C_Write>
     1a6:	8c 2f       	mov	r24, r28
     1a8:	8c 60       	ori	r24, 0x0C	; 12
     1aa:	0e 94 a6 00 	call	0x14c	; 0x14c <I2C_Write>
     1ae:	81 2f       	mov	r24, r17
     1b0:	0e 94 a6 00 	call	0x14c	; 0x14c <I2C_Write>
     1b4:	0e 94 9e 00 	call	0x13c	; 0x13c <I2C_Stop>
     1b8:	df 91       	pop	r29
     1ba:	cf 91       	pop	r28
     1bc:	1f 91       	pop	r17
     1be:	0f 91       	pop	r16
     1c0:	08 95       	ret

000001c2 <LCD_Command>:
     1c2:	60 e0       	ldi	r22, 0x00	; 0
     1c4:	0e 94 b0 00 	call	0x160	; 0x160 <LCD_Send>
     1c8:	8f e3       	ldi	r24, 0x3F	; 63
     1ca:	9f e1       	ldi	r25, 0x1F	; 31
     1cc:	01 97       	sbiw	r24, 0x01	; 1
     1ce:	f1 f7       	brne	.-4      	; 0x1cc <LCD_Command+0xa>
     1d0:	00 c0       	rjmp	.+0      	; 0x1d2 <LCD_Command+0x10>
     1d2:	00 00       	nop
     1d4:	08 95       	ret

000001d6 <LCD_Data>:
     1d6:	61 e0       	ldi	r22, 0x01	; 1
     1d8:	0e 94 b0 00 	call	0x160	; 0x160 <LCD_Send>
     1dc:	8f e3       	ldi	r24, 0x3F	; 63
     1de:	9f e1       	ldi	r25, 0x1F	; 31
     1e0:	01 97       	sbiw	r24, 0x01	; 1
     1e2:	f1 f7       	brne	.-4      	; 0x1e0 <LCD_Data+0xa>
     1e4:	00 c0       	rjmp	.+0      	; 0x1e6 <LCD_Data+0x10>
     1e6:	00 00       	nop
     1e8:	08 95       	ret

000001ea <LCD_Init>:
     1ea:	2f ef       	ldi	r18, 0xFF	; 255
     1ec:	80 e7       	ldi	r24, 0x70	; 112
     1ee:	92 e0       	ldi	r25, 0x02	; 2
     1f0:	21 50       	subi	r18, 0x01	; 1
     1f2:	80 40       	sbci	r24, 0x00	; 0
     1f4:	90 40       	sbci	r25, 0x00	; 0
     1f6:	e1 f7       	brne	.-8      	; 0x1f0 <LCD_Init+0x6>
     1f8:	00 c0       	rjmp	.+0      	; 0x1fa <LCD_Init+0x10>
     1fa:	00 00       	nop
     1fc:	83 e0       	ldi	r24, 0x03	; 3
     1fe:	0e 94 e1 00 	call	0x1c2	; 0x1c2 <LCD_Command>
     202:	8f e1       	ldi	r24, 0x1F	; 31
     204:	9e e4       	ldi	r25, 0x4E	; 78
     206:	01 97       	sbiw	r24, 0x01	; 1
     208:	f1 f7       	brne	.-4      	; 0x206 <LCD_Init+0x1c>
     20a:	00 c0       	rjmp	.+0      	; 0x20c <LCD_Init+0x22>
     20c:	00 00       	nop
     20e:	83 e0       	ldi	r24, 0x03	; 3
     210:	0e 94 e1 00 	call	0x1c2	; 0x1c2 <LCD_Command>
     214:	87 e5       	ldi	r24, 0x57	; 87
     216:	92 e0       	ldi	r25, 0x02	; 2
     218:	01 97       	sbiw	r24, 0x01	; 1
     21a:	f1 f7       	brne	.-4      	; 0x218 <LCD_Init+0x2e>
     21c:	00 c0       	rjmp	.+0      	; 0x21e <LCD_Init+0x34>
     21e:	00 00       	nop
     220:	83 e0       	ldi	r24, 0x03	; 3
     222:	0e 94 e1 00 	call	0x1c2	; 0x1c2 <LCD_Command>
     226:	82 e0       	ldi	r24, 0x02	; 2
     228:	0e 94 e1 00 	call	0x1c2	; 0x1c2 <LCD_Command>
     22c:	88 e2       	ldi	r24, 0x28	; 40
     22e:	0e 94 e1 00 	call	0x1c2	; 0x1c2 <LCD_Command>
     232:	88 e0       	ldi	r24, 0x08	; 8
     234:	0e 94 e1 00 	call	0x1c2	; 0x1c2 <LCD_Command>
     238:	81 e0       	ldi	r24, 0x01	; 1
     23a:	0e 94 e1 00 	call	0x1c2	; 0x1c2 <LCD_Command>
     23e:	8f e3       	ldi	r24, 0x3F	; 63
     240:	9f e1       	ldi	r25, 0x1F	; 31
     242:	01 97       	sbiw	r24, 0x01	; 1
     244:	f1 f7       	brne	.-4      	; 0x242 <LCD_Init+0x58>
     246:	00 c0       	rjmp	.+0      	; 0x248 <LCD_Init+0x5e>
     248:	00 00       	nop
     24a:	86 e0       	ldi	r24, 0x06	; 6
     24c:	0e 94 e1 00 	call	0x1c2	; 0x1c2 <LCD_Command>
     250:	8c e0       	ldi	r24, 0x0C	; 12
     252:	0e 94 e1 00 	call	0x1c2	; 0x1c2 <LCD_Command>
     256:	08 95       	ret

00000258 <LCD_Clear>:
     258:	81 e0       	ldi	r24, 0x01	; 1
     25a:	0e 94 e1 00 	call	0x1c2	; 0x1c2 <LCD_Command>
     25e:	8f e3       	ldi	r24, 0x3F	; 63
     260:	9f e1       	ldi	r25, 0x1F	; 31
     262:	01 97       	sbiw	r24, 0x01	; 1
     264:	f1 f7       	brne	.-4      	; 0x262 <LCD_Clear+0xa>
     266:	00 c0       	rjmp	.+0      	; 0x268 <LCD_Clear+0x10>
     268:	00 00       	nop
     26a:	08 95       	ret

0000026c <LCD_SetCursor>:
     26c:	cf 93       	push	r28
     26e:	df 93       	push	r29
     270:	00 d0       	rcall	.+0      	; 0x272 <LCD_SetCursor+0x6>
     272:	00 d0       	rcall	.+0      	; 0x274 <LCD_SetCursor+0x8>
     274:	cd b7       	in	r28, 0x3d	; 61
     276:	de b7       	in	r29, 0x3e	; 62
     278:	19 82       	std	Y+1, r1	; 0x01
     27a:	90 e4       	ldi	r25, 0x40	; 64
     27c:	9a 83       	std	Y+2, r25	; 0x02
     27e:	94 e1       	ldi	r25, 0x14	; 20
     280:	9b 83       	std	Y+3, r25	; 0x03
     282:	94 e5       	ldi	r25, 0x54	; 84
     284:	9c 83       	std	Y+4, r25	; 0x04
     286:	e1 e0       	ldi	r30, 0x01	; 1
     288:	f0 e0       	ldi	r31, 0x00	; 0
     28a:	ec 0f       	add	r30, r28
     28c:	fd 1f       	adc	r31, r29
     28e:	e6 0f       	add	r30, r22
     290:	f1 1d       	adc	r31, r1
     292:	90 81       	ld	r25, Z
     294:	89 0f       	add	r24, r25
     296:	80 68       	ori	r24, 0x80	; 128
     298:	0e 94 e1 00 	call	0x1c2	; 0x1c2 <LCD_Command>
     29c:	0f 90       	pop	r0
     29e:	0f 90       	pop	r0
     2a0:	0f 90       	pop	r0
     2a2:	0f 90       	pop	r0
     2a4:	df 91       	pop	r29
     2a6:	cf 91       	pop	r28
     2a8:	08 95       	ret

000002aa <LCD_Print>:
void LCD_SetCursor(uint8_t col, uint8_t row) {
	uint8_t row_offsets[] = {0x00, 0x40, 0x14, 0x54};
	LCD_Command(0x80 | (col + row_offsets[row])); // Óńňŕíîâęŕ ŕäđĺńŕ DDRAM
}

void LCD_Print(char* str) {
     2aa:	cf 93       	push	r28
     2ac:	df 93       	push	r29
     2ae:	ec 01       	movw	r28, r24
	while (*str) {
     2b0:	03 c0       	rjmp	.+6      	; 0x2b8 <LCD_Print+0xe>
		LCD_Data(*str++);
     2b2:	21 96       	adiw	r28, 0x01	; 1
     2b4:	0e 94 eb 00 	call	0x1d6	; 0x1d6 <LCD_Data>
	uint8_t row_offsets[] = {0x00, 0x40, 0x14, 0x54};
	LCD_Command(0x80 | (col + row_offsets[row])); // Óńňŕíîâęŕ ŕäđĺńŕ DDRAM
}

void LCD_Print(char* str) {
	while (*str) {
     2b8:	88 81       	ld	r24, Y
     2ba:	81 11       	cpse	r24, r1
     2bc:	fa cf       	rjmp	.-12     	; 0x2b2 <LCD_Print+0x8>
		LCD_Data(*str++);
	}
}
     2be:	df 91       	pop	r29
     2c0:	cf 91       	pop	r28
     2c2:	08 95       	ret

000002c4 <LCD_Blink>:

void LCD_Blink(char* buffer) {
     2c4:	af 92       	push	r10
     2c6:	bf 92       	push	r11
     2c8:	cf 92       	push	r12
     2ca:	df 92       	push	r13
     2cc:	ef 92       	push	r14
     2ce:	ff 92       	push	r15
     2d0:	0f 93       	push	r16
     2d2:	1f 93       	push	r17
     2d4:	cf 93       	push	r28
     2d6:	df 93       	push	r29
     2d8:	cd b7       	in	r28, 0x3d	; 61
     2da:	de b7       	in	r29, 0x3e	; 62
     2dc:	fc 01       	movw	r30, r24
		blankString[length] = '\0'; // Çŕâĺđřŕĺě ńňđîęó íóëĺâűě ńčěâîëîě
		LCD_Print(blankString); // Ďĺ÷ŕňŕĺě ďóńňóţ ńňđîęó
		} else {
		LCD_Print(buffer); // Ďĺ÷ŕňŕĺě ńňđîęó
	}
}
     2de:	0d b7       	in	r16, 0x3d	; 61
     2e0:	1e b7       	in	r17, 0x3e	; 62

void LCD_Blink(char* buffer) {
	static uint8_t toggle = 0; // Ôëŕă ďĺđĺęëţ÷ĺíč˙
	static uint8_t counter = 0; // Ń÷ĺň÷čę äë˙ ęîíňđîë˙ ěčăŕíč˙
	uint8_t blinkCyclesNumber = 20; // Ęîëč÷ĺńňâî öčęëîâ ěĺćäó ěčăŕíč˙ěč
	uint8_t length = strlen(buffer); // Äëčíŕ ńňđîęč
     2e2:	dc 01       	movw	r26, r24
     2e4:	0d 90       	ld	r0, X+
     2e6:	00 20       	and	r0, r0
     2e8:	e9 f7       	brne	.-6      	; 0x2e4 <LCD_Blink+0x20>
     2ea:	11 97       	sbiw	r26, 0x01	; 1
     2ec:	9d 01       	movw	r18, r26
     2ee:	28 1b       	sub	r18, r24
     2f0:	39 0b       	sbc	r19, r25
	
	counter = (counter + 1) % 255; // Ďđĺäîňâđŕůĺíčĺ ďĺđĺďîëíĺíč˙
     2f2:	80 91 48 01 	lds	r24, 0x0148	; 0x800148 <counter.1826>
     2f6:	90 e0       	ldi	r25, 0x00	; 0
     2f8:	01 96       	adiw	r24, 0x01	; 1
     2fa:	6f ef       	ldi	r22, 0xFF	; 255
     2fc:	70 e0       	ldi	r23, 0x00	; 0
     2fe:	0e 94 eb 05 	call	0xbd6	; 0xbd6 <__divmodhi4>
     302:	80 93 48 01 	sts	0x0148, r24	; 0x800148 <counter.1826>

	if (counter % blinkCyclesNumber == 0) {
     306:	9d ec       	ldi	r25, 0xCD	; 205
     308:	89 9f       	mul	r24, r25
     30a:	91 2d       	mov	r25, r1
     30c:	11 24       	eor	r1, r1
     30e:	92 95       	swap	r25
     310:	9f 70       	andi	r25, 0x0F	; 15
     312:	99 0f       	add	r25, r25
     314:	99 0f       	add	r25, r25
     316:	49 2f       	mov	r20, r25
     318:	44 0f       	add	r20, r20
     31a:	44 0f       	add	r20, r20
     31c:	94 0f       	add	r25, r20
     31e:	98 13       	cpse	r25, r24
     320:	07 c0       	rjmp	.+14     	; 0x330 <LCD_Blink+0x6c>
		toggle = !toggle; // Ěĺí˙ĺě ńîńňî˙íčĺ
     322:	81 e0       	ldi	r24, 0x01	; 1
     324:	90 91 47 01 	lds	r25, 0x0147	; 0x800147 <toggle.1825>
     328:	91 11       	cpse	r25, r1
     32a:	80 e0       	ldi	r24, 0x00	; 0
     32c:	80 93 47 01 	sts	0x0147, r24	; 0x800147 <toggle.1825>
	}

	if (toggle) {
     330:	80 91 47 01 	lds	r24, 0x0147	; 0x800147 <toggle.1825>
     334:	88 23       	and	r24, r24
     336:	29 f1       	breq	.+74     	; 0x382 <LCD_Blink+0xbe>
     338:	cd b6       	in	r12, 0x3d	; 61
     33a:	de b6       	in	r13, 0x3e	; 62
     33c:	79 01       	movw	r14, r18
     33e:	ff 24       	eor	r15, r15
		// Ńîçäŕĺě ńňđîęó čç ďđîáĺëîâ ňŕęîé ćĺ äëčíű, ęŕę buffer
		char blankString[length + 1];
     340:	c7 01       	movw	r24, r14
     342:	01 96       	adiw	r24, 0x01	; 1
     344:	2d b7       	in	r18, 0x3d	; 61
     346:	3e b7       	in	r19, 0x3e	; 62
     348:	28 1b       	sub	r18, r24
     34a:	39 0b       	sbc	r19, r25
     34c:	0f b6       	in	r0, 0x3f	; 63
     34e:	f8 94       	cli
     350:	3e bf       	out	0x3e, r19	; 62
     352:	0f be       	out	0x3f, r0	; 63
     354:	2d bf       	out	0x3d, r18	; 61
     356:	8d b7       	in	r24, 0x3d	; 61
     358:	9e b7       	in	r25, 0x3e	; 62
     35a:	01 96       	adiw	r24, 0x01	; 1
     35c:	5c 01       	movw	r10, r24
		memset(blankString, ' ', length);
     35e:	a7 01       	movw	r20, r14
     360:	60 e2       	ldi	r22, 0x20	; 32
     362:	70 e0       	ldi	r23, 0x00	; 0
     364:	0e 94 13 06 	call	0xc26	; 0xc26 <memset>
		blankString[length] = '\0'; // Çŕâĺđřŕĺě ńňđîęó íóëĺâűě ńčěâîëîě
     368:	f5 01       	movw	r30, r10
     36a:	ee 0d       	add	r30, r14
     36c:	ff 1d       	adc	r31, r15
     36e:	10 82       	st	Z, r1
		LCD_Print(blankString); // Ďĺ÷ŕňŕĺě ďóńňóţ ńňđîęó
     370:	c5 01       	movw	r24, r10
     372:	0e 94 55 01 	call	0x2aa	; 0x2aa <LCD_Print>
     376:	0f b6       	in	r0, 0x3f	; 63
     378:	f8 94       	cli
     37a:	de be       	out	0x3e, r13	; 62
     37c:	0f be       	out	0x3f, r0	; 63
     37e:	cd be       	out	0x3d, r12	; 61
     380:	03 c0       	rjmp	.+6      	; 0x388 <LCD_Blink+0xc4>
		} else {
		LCD_Print(buffer); // Ďĺ÷ŕňŕĺě ńňđîęó
     382:	cf 01       	movw	r24, r30
     384:	0e 94 55 01 	call	0x2aa	; 0x2aa <LCD_Print>
	}
}
     388:	0f b6       	in	r0, 0x3f	; 63
     38a:	f8 94       	cli
     38c:	1e bf       	out	0x3e, r17	; 62
     38e:	0f be       	out	0x3f, r0	; 63
     390:	0d bf       	out	0x3d, r16	; 61
     392:	df 91       	pop	r29
     394:	cf 91       	pop	r28
     396:	1f 91       	pop	r17
     398:	0f 91       	pop	r16
     39a:	ff 90       	pop	r15
     39c:	ef 90       	pop	r14
     39e:	df 90       	pop	r13
     3a0:	cf 90       	pop	r12
     3a2:	bf 90       	pop	r11
     3a4:	af 90       	pop	r10
     3a6:	08 95       	ret

000003a8 <LCD_PrintTwoLines>:


void LCD_PrintTwoLines(char* firstLineText, char* secondLineText, int blink) {
     3a8:	ef 92       	push	r14
     3aa:	ff 92       	push	r15
     3ac:	0f 93       	push	r16
     3ae:	1f 93       	push	r17
     3b0:	cf 93       	push	r28
     3b2:	df 93       	push	r29
     3b4:	8c 01       	movw	r16, r24
     3b6:	7b 01       	movw	r14, r22
     3b8:	ea 01       	movw	r28, r20
	
		LCD_SetCursor(0, 0);
     3ba:	60 e0       	ldi	r22, 0x00	; 0
     3bc:	80 e0       	ldi	r24, 0x00	; 0
     3be:	0e 94 36 01 	call	0x26c	; 0x26c <LCD_SetCursor>
		LCD_Print(firstLineText);
     3c2:	c8 01       	movw	r24, r16
     3c4:	0e 94 55 01 	call	0x2aa	; 0x2aa <LCD_Print>
		LCD_SetCursor(0, 1);
     3c8:	61 e0       	ldi	r22, 0x01	; 1
     3ca:	80 e0       	ldi	r24, 0x00	; 0
     3cc:	0e 94 36 01 	call	0x26c	; 0x26c <LCD_SetCursor>
		
		if (blink == 1)	{
     3d0:	21 97       	sbiw	r28, 0x01	; 1
     3d2:	21 f4       	brne	.+8      	; 0x3dc <LCD_PrintTwoLines+0x34>
			LCD_Blink(secondLineText);
     3d4:	c7 01       	movw	r24, r14
     3d6:	0e 94 62 01 	call	0x2c4	; 0x2c4 <LCD_Blink>
     3da:	03 c0       	rjmp	.+6      	; 0x3e2 <LCD_PrintTwoLines+0x3a>
		}
		else {
			LCD_Print(secondLineText);			
     3dc:	c7 01       	movw	r24, r14
     3de:	0e 94 55 01 	call	0x2aa	; 0x2aa <LCD_Print>
		}
}
     3e2:	df 91       	pop	r29
     3e4:	cf 91       	pop	r28
     3e6:	1f 91       	pop	r17
     3e8:	0f 91       	pop	r16
     3ea:	ff 90       	pop	r15
     3ec:	ef 90       	pop	r14
     3ee:	08 95       	ret

000003f0 <update_lcd>:

void update_lcd(uint8_t cmd, uint8_t table_id) {
     3f0:	0f 93       	push	r16
     3f2:	1f 93       	push	r17
     3f4:	cf 93       	push	r28
     3f6:	df 93       	push	r29
     3f8:	cd b7       	in	r28, 0x3d	; 61
     3fa:	de b7       	in	r29, 0x3e	; 62
     3fc:	61 97       	sbiw	r28, 0x11	; 17
     3fe:	0f b6       	in	r0, 0x3f	; 63
     400:	f8 94       	cli
     402:	de bf       	out	0x3e, r29	; 62
     404:	0f be       	out	0x3f, r0	; 63
     406:	cd bf       	out	0x3d, r28	; 61
	char line1[17];
	snprintf(line1, sizeof(line1), "CMD:%03d TBL:%02d", cmd, table_id);
     408:	1f 92       	push	r1
     40a:	6f 93       	push	r22
     40c:	1f 92       	push	r1
     40e:	8f 93       	push	r24
     410:	8a e1       	ldi	r24, 0x1A	; 26
     412:	91 e0       	ldi	r25, 0x01	; 1
     414:	9f 93       	push	r25
     416:	8f 93       	push	r24
     418:	1f 92       	push	r1
     41a:	81 e1       	ldi	r24, 0x11	; 17
     41c:	8f 93       	push	r24
     41e:	8e 01       	movw	r16, r28
     420:	0f 5f       	subi	r16, 0xFF	; 255
     422:	1f 4f       	sbci	r17, 0xFF	; 255
     424:	1f 93       	push	r17
     426:	0f 93       	push	r16
     428:	0e 94 1a 06 	call	0xc34	; 0xc34 <snprintf>

	// Çŕďîëí˙ĺě îńňŕâřčĺń˙ ńčěâîëű ďđîáĺëŕěč
	uint8_t len = strlen(line1);
     42c:	f8 01       	movw	r30, r16
     42e:	01 90       	ld	r0, Z+
     430:	00 20       	and	r0, r0
     432:	e9 f7       	brne	.-6      	; 0x42e <__EEPROM_REGION_LENGTH__+0x2e>
     434:	31 97       	sbiw	r30, 0x01	; 1
     436:	e0 1b       	sub	r30, r16
	for (uint8_t i = len; i < 16; i++) {
     438:	0f b6       	in	r0, 0x3f	; 63
     43a:	f8 94       	cli
     43c:	de bf       	out	0x3e, r29	; 62
     43e:	0f be       	out	0x3f, r0	; 63
     440:	cd bf       	out	0x3d, r28	; 61
     442:	09 c0       	rjmp	.+18     	; 0x456 <__EEPROM_REGION_LENGTH__+0x56>
		line1[i] = ' ';
     444:	a1 e0       	ldi	r26, 0x01	; 1
     446:	b0 e0       	ldi	r27, 0x00	; 0
     448:	ac 0f       	add	r26, r28
     44a:	bd 1f       	adc	r27, r29
     44c:	ae 0f       	add	r26, r30
     44e:	b1 1d       	adc	r27, r1
     450:	80 e2       	ldi	r24, 0x20	; 32
     452:	8c 93       	st	X, r24
	char line1[17];
	snprintf(line1, sizeof(line1), "CMD:%03d TBL:%02d", cmd, table_id);

	// Çŕďîëí˙ĺě îńňŕâřčĺń˙ ńčěâîëű ďđîáĺëŕěč
	uint8_t len = strlen(line1);
	for (uint8_t i = len; i < 16; i++) {
     454:	ef 5f       	subi	r30, 0xFF	; 255
     456:	e0 31       	cpi	r30, 0x10	; 16
     458:	a8 f3       	brcs	.-22     	; 0x444 <__EEPROM_REGION_LENGTH__+0x44>
		line1[i] = ' ';
	}
	line1[16] = '\0';
     45a:	19 8a       	std	Y+17, r1	; 0x11

	LCD_SetCursor(0, 0);
     45c:	60 e0       	ldi	r22, 0x00	; 0
     45e:	80 e0       	ldi	r24, 0x00	; 0
     460:	0e 94 36 01 	call	0x26c	; 0x26c <LCD_SetCursor>
	LCD_Print(line1);
     464:	ce 01       	movw	r24, r28
     466:	01 96       	adiw	r24, 0x01	; 1
     468:	0e 94 55 01 	call	0x2aa	; 0x2aa <LCD_Print>
}
     46c:	61 96       	adiw	r28, 0x11	; 17
     46e:	0f b6       	in	r0, 0x3f	; 63
     470:	f8 94       	cli
     472:	de bf       	out	0x3e, r29	; 62
     474:	0f be       	out	0x3f, r0	; 63
     476:	cd bf       	out	0x3d, r28	; 61
     478:	df 91       	pop	r29
     47a:	cf 91       	pop	r28
     47c:	1f 91       	pop	r17
     47e:	0f 91       	pop	r16
     480:	08 95       	ret

00000482 <print_triggered_sensor>:


void print_triggered_sensor(uint8_t states) {
     482:	cf 93       	push	r28
     484:	df 93       	push	r29
     486:	cd b7       	in	r28, 0x3d	; 61
     488:	de b7       	in	r29, 0x3e	; 62
     48a:	61 97       	sbiw	r28, 0x11	; 17
     48c:	0f b6       	in	r0, 0x3f	; 63
     48e:	f8 94       	cli
     490:	de bf       	out	0x3e, r29	; 62
     492:	0f be       	out	0x3f, r0	; 63
     494:	cd bf       	out	0x3d, r28	; 61
	char line2[17];

	for (uint8_t i = 0; i < 8; i++) {
     496:	90 e0       	ldi	r25, 0x00	; 0
     498:	1a c0       	rjmp	.+52     	; 0x4ce <print_triggered_sensor+0x4c>
		line2[i] = (states & (1 << (7 - i))) ? '1' : '0';
     49a:	29 2f       	mov	r18, r25
     49c:	30 e0       	ldi	r19, 0x00	; 0
     49e:	67 e0       	ldi	r22, 0x07	; 7
     4a0:	70 e0       	ldi	r23, 0x00	; 0
     4a2:	62 1b       	sub	r22, r18
     4a4:	73 0b       	sbc	r23, r19
     4a6:	48 2f       	mov	r20, r24
     4a8:	50 e0       	ldi	r21, 0x00	; 0
     4aa:	02 c0       	rjmp	.+4      	; 0x4b0 <print_triggered_sensor+0x2e>
     4ac:	55 95       	asr	r21
     4ae:	47 95       	ror	r20
     4b0:	6a 95       	dec	r22
     4b2:	e2 f7       	brpl	.-8      	; 0x4ac <print_triggered_sensor+0x2a>
     4b4:	40 ff       	sbrs	r20, 0
     4b6:	02 c0       	rjmp	.+4      	; 0x4bc <print_triggered_sensor+0x3a>
     4b8:	41 e3       	ldi	r20, 0x31	; 49
     4ba:	01 c0       	rjmp	.+2      	; 0x4be <print_triggered_sensor+0x3c>
     4bc:	40 e3       	ldi	r20, 0x30	; 48
     4be:	e1 e0       	ldi	r30, 0x01	; 1
     4c0:	f0 e0       	ldi	r31, 0x00	; 0
     4c2:	ec 0f       	add	r30, r28
     4c4:	fd 1f       	adc	r31, r29
     4c6:	e2 0f       	add	r30, r18
     4c8:	f3 1f       	adc	r31, r19
     4ca:	40 83       	st	Z, r20


void print_triggered_sensor(uint8_t states) {
	char line2[17];

	for (uint8_t i = 0; i < 8; i++) {
     4cc:	9f 5f       	subi	r25, 0xFF	; 255
     4ce:	98 30       	cpi	r25, 0x08	; 8
     4d0:	20 f3       	brcs	.-56     	; 0x49a <print_triggered_sensor+0x18>
		line2[i] = (states & (1 << (7 - i))) ? '1' : '0';
	}
	line2[8] = '\0';
     4d2:	19 86       	std	Y+9, r1	; 0x09

	LCD_SetCursor(0, 1);  // ňîëüęî íčćí˙˙ ńňđîęŕ
     4d4:	61 e0       	ldi	r22, 0x01	; 1
     4d6:	80 e0       	ldi	r24, 0x00	; 0
     4d8:	0e 94 36 01 	call	0x26c	; 0x26c <LCD_SetCursor>
	LCD_Print(line2);
     4dc:	ce 01       	movw	r24, r28
     4de:	01 96       	adiw	r24, 0x01	; 1
     4e0:	0e 94 55 01 	call	0x2aa	; 0x2aa <LCD_Print>
}
     4e4:	61 96       	adiw	r28, 0x11	; 17
     4e6:	0f b6       	in	r0, 0x3f	; 63
     4e8:	f8 94       	cli
     4ea:	de bf       	out	0x3e, r29	; 62
     4ec:	0f be       	out	0x3f, r0	; 63
     4ee:	cd bf       	out	0x3d, r28	; 61
     4f0:	df 91       	pop	r29
     4f2:	cf 91       	pop	r28
     4f4:	08 95       	ret

000004f6 <PowerSupplyOn>:
	OCR1A = (PWM_MAX/2);
}

void PowerSupplyOn() {

	PORTB |= (1 << REGISTER_SWITCH);	
     4f6:	85 b1       	in	r24, 0x05	; 5
     4f8:	81 60       	ori	r24, 0x01	; 1
     4fa:	85 b9       	out	0x05, r24	; 5
     4fc:	08 95       	ret

000004fe <MoveLocoForward>:
	routeSetupInProgress = 0;
	
	PowerSupplyOff();
}

void MoveLocoForward(uint8_t tableIndex) {
     4fe:	1f 93       	push	r17
     500:	cf 93       	push	r28
     502:	df 93       	push	r29
     504:	00 d0       	rcall	.+0      	; 0x506 <MoveLocoForward+0x8>
     506:	1f 92       	push	r1
     508:	cd b7       	in	r28, 0x3d	; 61
     50a:	de b7       	in	r29, 0x3e	; 62
     50c:	18 2f       	mov	r17, r24
	
	PORTB &= ~(1 << REVERS_PIN);
     50e:	85 b1       	in	r24, 0x05	; 5
     510:	8f 7d       	andi	r24, 0xDF	; 223
     512:	85 b9       	out	0x05, r24	; 5
	PORTB |= (1 << PWM_SWITCH_PIN);
     514:	85 b1       	in	r24, 0x05	; 5
     516:	80 61       	ori	r24, 0x10	; 16
     518:	85 b9       	out	0x05, r24	; 5
	
	PowerSupplyOn();
     51a:	0e 94 7b 02 	call	0x4f6	; 0x4f6 <PowerSupplyOn>
	
	uint8_t shiftData[NUM_OF_74HC595] = {0};
     51e:	19 82       	std	Y+1, r1	; 0x01
     520:	1a 82       	std	Y+2, r1	; 0x02
     522:	1b 82       	std	Y+3, r1	; 0x03
	
	shiftData[2] = powerRoutesSuplly[tableIndex];
     524:	e1 2f       	mov	r30, r17
     526:	f0 e0       	ldi	r31, 0x00	; 0
     528:	e4 5d       	subi	r30, 0xD4	; 212
     52a:	fe 4f       	sbci	r31, 0xFE	; 254
     52c:	80 81       	ld	r24, Z
     52e:	8b 83       	std	Y+3, r24	; 0x03
	
	shiftOutMultiple(shiftData, NUM_OF_74HC595);
     530:	63 e0       	ldi	r22, 0x03	; 3
     532:	ce 01       	movw	r24, r28
     534:	01 96       	adiw	r24, 0x01	; 1
     536:	0e 94 dd 04 	call	0x9ba	; 0x9ba <shiftOutMultiple>
	
	startPWMUp();
     53a:	0e 94 92 03 	call	0x724	; 0x724 <startPWMUp>
}
     53e:	0f 90       	pop	r0
     540:	0f 90       	pop	r0
     542:	0f 90       	pop	r0
     544:	df 91       	pop	r29
     546:	cf 91       	pop	r28
     548:	1f 91       	pop	r17
     54a:	08 95       	ret

0000054c <PowerSupplyOff>:
	PORTB |= (1 << REGISTER_SWITCH);	
}

void PowerSupplyOff() {
	
	PORTB &= ~ (1 << REGISTER_SWITCH);
     54c:	85 b1       	in	r24, 0x05	; 5
     54e:	8e 7f       	andi	r24, 0xFE	; 254
     550:	85 b9       	out	0x05, r24	; 5
     552:	08 95       	ret

00000554 <LocoStop>:
	DC_SUPLLY_TABLE_7,
	DC_SUPLLY_TABLE_8

};

void LocoStop(void) {
     554:	cf 93       	push	r28
     556:	df 93       	push	r29
     558:	00 d0       	rcall	.+0      	; 0x55a <LocoStop+0x6>
     55a:	1f 92       	push	r1
     55c:	cd b7       	in	r28, 0x3d	; 61
     55e:	de b7       	in	r29, 0x3e	; 62
	
	PORTB  &= ~(1 << REVERS_PIN);
     560:	85 b1       	in	r24, 0x05	; 5
     562:	8f 7d       	andi	r24, 0xDF	; 223
     564:	85 b9       	out	0x05, r24	; 5
	PORTB &= ~(1 << PWM_SWITCH_PIN);
     566:	85 b1       	in	r24, 0x05	; 5
     568:	8f 7e       	andi	r24, 0xEF	; 239
     56a:	85 b9       	out	0x05, r24	; 5
	
	disablePWM();
     56c:	0e 94 83 03 	call	0x706	; 0x706 <disablePWM>
	
	uint8_t shiftData[NUM_OF_74HC595] = {0};
     570:	19 82       	std	Y+1, r1	; 0x01
     572:	1a 82       	std	Y+2, r1	; 0x02
     574:	1b 82       	std	Y+3, r1	; 0x03
		
	shiftOutMultiple(shiftData, NUM_OF_74HC595);
     576:	63 e0       	ldi	r22, 0x03	; 3
     578:	ce 01       	movw	r24, r28
     57a:	01 96       	adiw	r24, 0x01	; 1
     57c:	0e 94 dd 04 	call	0x9ba	; 0x9ba <shiftOutMultiple>
	
	reset_route_state();
     580:	0e 94 f3 03 	call	0x7e6	; 0x7e6 <reset_route_state>
	
	routeSetupInProgress = 0;
     584:	10 92 46 01 	sts	0x0146, r1	; 0x800146 <__data_end>
	
	PowerSupplyOff();
     588:	0e 94 a6 02 	call	0x54c	; 0x54c <PowerSupplyOff>
}
     58c:	0f 90       	pop	r0
     58e:	0f 90       	pop	r0
     590:	0f 90       	pop	r0
     592:	df 91       	pop	r29
     594:	cf 91       	pop	r28
     596:	08 95       	ret

00000598 <MoveLocoBackward>:
	shiftOutMultiple(shiftData, NUM_OF_74HC595);
	
	startPWMUp();
}

void MoveLocoBackward(uint8_t tableIndex) {
     598:	1f 93       	push	r17
     59a:	cf 93       	push	r28
     59c:	df 93       	push	r29
     59e:	00 d0       	rcall	.+0      	; 0x5a0 <MoveLocoBackward+0x8>
     5a0:	1f 92       	push	r1
     5a2:	cd b7       	in	r28, 0x3d	; 61
     5a4:	de b7       	in	r29, 0x3e	; 62
	
	uint8_t shiftRegisterMask = tableIndex - 1;
     5a6:	1f ef       	ldi	r17, 0xFF	; 255
     5a8:	18 0f       	add	r17, r24
	
	LocoStop();
     5aa:	0e 94 aa 02 	call	0x554	; 0x554 <LocoStop>
	
	PORTB |= (1 << PWM_SWITCH_PIN);
     5ae:	85 b1       	in	r24, 0x05	; 5
     5b0:	80 61       	ori	r24, 0x10	; 16
     5b2:	85 b9       	out	0x05, r24	; 5

	PORTB |= (1 << REVERS_PIN);
     5b4:	85 b1       	in	r24, 0x05	; 5
     5b6:	80 62       	ori	r24, 0x20	; 32
     5b8:	85 b9       	out	0x05, r24	; 5
	
	PowerSupplyOn();
     5ba:	0e 94 7b 02 	call	0x4f6	; 0x4f6 <PowerSupplyOn>
	
	startPWMUp();
     5be:	0e 94 92 03 	call	0x724	; 0x724 <startPWMUp>
	
	uint8_t shiftData[NUM_OF_74HC595] = {0};
     5c2:	19 82       	std	Y+1, r1	; 0x01
     5c4:	1a 82       	std	Y+2, r1	; 0x02
     5c6:	1b 82       	std	Y+3, r1	; 0x03
	
	shiftData[2] = powerRoutesSuplly[shiftRegisterMask];
     5c8:	e1 2f       	mov	r30, r17
     5ca:	f0 e0       	ldi	r31, 0x00	; 0
     5cc:	e4 5d       	subi	r30, 0xD4	; 212
     5ce:	fe 4f       	sbci	r31, 0xFE	; 254
     5d0:	80 81       	ld	r24, Z
     5d2:	8b 83       	std	Y+3, r24	; 0x03
			
	shiftOutMultiple(shiftData, NUM_OF_74HC595);
     5d4:	63 e0       	ldi	r22, 0x03	; 3
     5d6:	ce 01       	movw	r24, r28
     5d8:	01 96       	adiw	r24, 0x01	; 1
     5da:	0e 94 dd 04 	call	0x9ba	; 0x9ba <shiftOutMultiple>
	
	routeSetupInProgress = 0;
     5de:	10 92 46 01 	sts	0x0146, r1	; 0x800146 <__data_end>
	
}
     5e2:	0f 90       	pop	r0
     5e4:	0f 90       	pop	r0
     5e6:	0f 90       	pop	r0
     5e8:	df 91       	pop	r29
     5ea:	cf 91       	pop	r28
     5ec:	1f 91       	pop	r17
     5ee:	08 95       	ret

000005f0 <_Z17checkSensorsStatev>:
uint8_t previousSensorStates = 0xFF;


void checkSensorsState() {
	
	sensorStates = ~read_74HC165(); // ĺńëč ŕęňčâíűé âűńîęčé óđîâĺíü ń đĺăčńňđŕ
     5f0:	0e 94 8e 04 	call	0x91c	; 0x91c <read_74HC165>
     5f4:	80 95       	com	r24
     5f6:	80 93 4c 01 	sts	0x014C, r24	; 0x80014c <_ZL12sensorStates>

	if (sensorStates != previousSensorStates) {
     5fa:	90 91 00 01 	lds	r25, 0x0100	; 0x800100 <__DATA_REGION_ORIGIN__>
     5fe:	89 17       	cp	r24, r25
     600:	b9 f0       	breq	.+46     	; 0x630 <_Z17checkSensorsStatev+0x40>
		uint8_t changedBits = sensorStates ^ previousSensorStates;
     602:	98 27       	eor	r25, r24
		triggeredBitMask = sensorStates & changedBits;
     604:	98 23       	and	r25, r24
     606:	90 93 4b 01 	sts	0x014B, r25	; 0x80014b <triggeredBitMask>

		previousSensorStates = sensorStates;
     60a:	80 93 00 01 	sts	0x0100, r24	; 0x800100 <__DATA_REGION_ORIGIN__>

		if (triggeredBitMask) {
     60e:	99 23       	and	r25, r25
     610:	79 f0       	breq	.+30     	; 0x630 <_Z17checkSensorsStatev+0x40>
			// Ĺńëč ńđŕáîňŕë ďîńëĺäíčé äŕň÷čę (íŕďđčěĺđ, 8-é — SENSOR_8)
			if (triggeredBitMask & TABLE_END_WAY_SENSOR) {
     612:	2c f4       	brge	.+10     	; 0x61e <_Z17checkSensorsStatev+0x2e>
				triggeredBitsHistory = 0;
     614:	10 92 4a 01 	sts	0x014A, r1	; 0x80014a <triggeredBitsHistory>
				LocoStop();  // îá˙çŕňĺëüíŕ˙ îńňŕíîâęŕ
     618:	0e 94 aa 02 	call	0x554	; 0x554 <LocoStop>
     61c:	05 c0       	rjmp	.+10     	; 0x628 <_Z17checkSensorsStatev+0x38>
				} 
				else {
				triggeredBitsHistory |= triggeredBitMask;
     61e:	80 91 4a 01 	lds	r24, 0x014A	; 0x80014a <triggeredBitsHistory>
     622:	98 2b       	or	r25, r24
     624:	90 93 4a 01 	sts	0x014A, r25	; 0x80014a <triggeredBitsHistory>

			}

			print_triggered_sensor(triggeredBitsHistory);
     628:	80 91 4a 01 	lds	r24, 0x014A	; 0x80014a <triggeredBitsHistory>
     62c:	0e 94 41 02 	call	0x482	; 0x482 <print_triggered_sensor>
     630:	08 95       	ret

00000632 <_Z14process_packet11UART_Packet>:
		}
	}
}


void process_packet(UART_Packet packet) {
     632:	cf 93       	push	r28
     634:	df 93       	push	r29
	if (!packet.valid) {
     636:	99 23       	and	r25, r25
     638:	59 f1       	breq	.+86     	; 0x690 <_Z14process_packet11UART_Packet+0x5e>
     63a:	d7 2f       	mov	r29, r23
     63c:	c6 2f       	mov	r28, r22
		return;
	}
	
	switch (packet.cmd) {
     63e:	61 32       	cpi	r22, 0x21	; 33
     640:	d1 f0       	breq	.+52     	; 0x676 <_Z14process_packet11UART_Packet+0x44>
     642:	60 33       	cpi	r22, 0x30	; 48
     644:	19 f0       	breq	.+6      	; 0x64c <_Z14process_packet11UART_Packet+0x1a>
     646:	60 32       	cpi	r22, 0x20	; 32
     648:	f1 f4       	brne	.+60     	; 0x686 <_Z14process_packet11UART_Packet+0x54>
     64a:	06 c0       	rjmp	.+12     	; 0x658 <_Z14process_packet11UART_Packet+0x26>
		case CMD_STOP: // STOP
		{
			LocoStop();
     64c:	0e 94 aa 02 	call	0x554	; 0x554 <LocoStop>
		}
		send_ack(packet.cmd);
     650:	8c 2f       	mov	r24, r28
     652:	0e 94 e5 05 	call	0xbca	; 0xbca <send_ack>
		break;
     656:	17 c0       	rjmp	.+46     	; 0x686 <_Z14process_packet11UART_Packet+0x54>
		
		case CMD_FORWARD: // MOVE_FORWARD
			
			LocoStop();
     658:	0e 94 aa 02 	call	0x554	; 0x554 <LocoStop>

			send_ack(packet.cmd);
     65c:	8c 2f       	mov	r24, r28
     65e:	0e 94 e5 05 	call	0xbca	; 0xbca <send_ack>
		
		if (!routeSetupInProgress) {
     662:	80 91 46 01 	lds	r24, 0x0146	; 0x800146 <__data_end>
     666:	81 11       	cpse	r24, r1
     668:	0e c0       	rjmp	.+28     	; 0x686 <_Z14process_packet11UART_Packet+0x54>
			
			SelectedTable = packet.table_id;
     66a:	d0 93 49 01 	sts	0x0149, r29	; 0x800149 <SelectedTable>
			
			routeSetupInProgress = 1;
     66e:	81 e0       	ldi	r24, 0x01	; 1
     670:	80 93 46 01 	sts	0x0146, r24	; 0x800146 <__data_end>
     674:	08 c0       	rjmp	.+16     	; 0x686 <_Z14process_packet11UART_Packet+0x54>
		}
		break;
		
		case CMD_BACKWARD: // MOVE_BACKWARD
		{
			SelectedTable = packet.table_id;
     676:	70 93 49 01 	sts	0x0149, r23	; 0x800149 <SelectedTable>
			MoveLocoBackward(SelectedTable);
     67a:	87 2f       	mov	r24, r23
     67c:	0e 94 cc 02 	call	0x598	; 0x598 <MoveLocoBackward>
		}
		send_ack(packet.cmd);
     680:	8c 2f       	mov	r24, r28
     682:	0e 94 e5 05 	call	0xbca	; 0xbca <send_ack>
		
		default:
		break;
	}
	
	update_lcd(packet.cmd, SelectedTable);
     686:	60 91 49 01 	lds	r22, 0x0149	; 0x800149 <SelectedTable>
     68a:	8c 2f       	mov	r24, r28
     68c:	0e 94 f8 01 	call	0x3f0	; 0x3f0 <update_lcd>
}
     690:	df 91       	pop	r29
     692:	cf 91       	pop	r28
     694:	08 95       	ret

00000696 <main>:


int main(void) {
	system_init();
     696:	0e 94 53 00 	call	0xa6	; 0xa6 <system_init>

	while (1) {
		
	checkSensorsState();
     69a:	0e 94 f8 02 	call	0x5f0	; 0x5f0 <_Z17checkSensorsStatev>
	
	if (sensorStates != previousSensorStates) {
     69e:	80 91 4c 01 	lds	r24, 0x014C	; 0x80014c <_ZL12sensorStates>
     6a2:	90 91 00 01 	lds	r25, 0x0100	; 0x800100 <__DATA_REGION_ORIGIN__>
     6a6:	89 17       	cp	r24, r25
     6a8:	21 f0       	breq	.+8      	; 0x6b2 <main+0x1c>
		previousSensorStates = sensorStates;
     6aa:	80 93 00 01 	sts	0x0100, r24	; 0x800100 <__DATA_REGION_ORIGIN__>
		print_triggered_sensor(sensorStates);
     6ae:	0e 94 41 02 	call	0x482	; 0x482 <print_triggered_sensor>
	}		
			
		UART_Packet packet = UART_receive_full_packet();
     6b2:	0e 94 a3 05 	call	0xb46	; 0xb46 <UART_receive_full_packet>
		process_packet(packet);
     6b6:	0e 94 19 03 	call	0x632	; 0x632 <_Z14process_packet11UART_Packet>

		processPWMUp();  // îáđŕáŕňűâŕĺě ďëŕâíűé đŕçăîí	
     6ba:	0e 94 ae 03 	call	0x75c	; 0x75c <processPWMUp>
			
		if (routeSetupInProgress) {
     6be:	80 91 46 01 	lds	r24, 0x0146	; 0x800146 <__data_end>
     6c2:	88 23       	and	r24, r24
     6c4:	51 f3       	breq	.-44     	; 0x69a <main+0x4>
			
			activate_route_non_blocking(SelectedTable);
     6c6:	80 91 49 01 	lds	r24, 0x0149	; 0x800149 <SelectedTable>
     6ca:	0e 94 f6 03 	call	0x7ec	; 0x7ec <activate_route_non_blocking>


int main(void) {
	system_init();

	while (1) {
     6ce:	e5 cf       	rjmp	.-54     	; 0x69a <main+0x4>

000006d0 <initPWM>:
static uint32_t pwmLastTick = 0;

// Číčöčŕëčçŕöč˙ ŘČĚ íŕ PB1 (OC1A) ń 10-áčňíîé đŕçđ˙äíîńňüţ č ÷ŕńňîňîé 20 ęĂö
void initPWM() {

	DDRB |= (1 << PWM_PIN);  // Íŕńňđŕčâŕĺě PB1 ęŕę âűőîä
     6d0:	84 b1       	in	r24, 0x04	; 4
     6d2:	82 60       	ori	r24, 0x02	; 2
     6d4:	84 b9       	out	0x04, r24	; 4

	// Âęëţ÷ŕĺě 8-áčňíűé Fast PWM
	TCCR1A = (1 << COM1A1) | (1 << WGM10);  // 8-bit
     6d6:	81 e8       	ldi	r24, 0x81	; 129
     6d8:	80 93 80 00 	sts	0x0080, r24	; 0x800080 <__TEXT_REGION_LENGTH__+0x7f8080>
	TCCR1B = (1 << WGM12) | (1 << CS10);   // Fast PWM, áĺç äĺëčňĺë˙
     6dc:	89 e0       	ldi	r24, 0x09	; 9
     6de:	80 93 81 00 	sts	0x0081, r24	; 0x800081 <__TEXT_REGION_LENGTH__+0x7f8081>

	OCR1A = 0;  // Ńňŕđňîâîĺ çíŕ÷ĺíčĺ
     6e2:	10 92 89 00 	sts	0x0089, r1	; 0x800089 <__TEXT_REGION_LENGTH__+0x7f8089>
     6e6:	10 92 88 00 	sts	0x0088, r1	; 0x800088 <__TEXT_REGION_LENGTH__+0x7f8088>
     6ea:	08 95       	ret

000006ec <enablePWM>:
}

void enablePWM() {
	OCR1A = 0; // ? íŕ âń˙ęčé ńëó÷ŕé	
     6ec:	10 92 89 00 	sts	0x0089, r1	; 0x800089 <__TEXT_REGION_LENGTH__+0x7f8089>
     6f0:	10 92 88 00 	sts	0x0088, r1	; 0x800088 <__TEXT_REGION_LENGTH__+0x7f8088>
	TCCR1A |= (1 << COM1A1); // Âęëţ÷ŕĺě âűőîä ŘČĚ
     6f4:	e0 e8       	ldi	r30, 0x80	; 128
     6f6:	f0 e0       	ldi	r31, 0x00	; 0
     6f8:	80 81       	ld	r24, Z
     6fa:	80 68       	ori	r24, 0x80	; 128
     6fc:	80 83       	st	Z, r24
	DDRB |= (1 << PWM_PIN);  // Óńňŕíŕâëčâŕĺě ďčí ęŕę âűőîä
     6fe:	84 b1       	in	r24, 0x04	; 4
     700:	82 60       	ori	r24, 0x02	; 2
     702:	84 b9       	out	0x04, r24	; 4
     704:	08 95       	ret

00000706 <disablePWM>:
}

void disablePWM() {
	pwmIncreasing = 0;
     706:	10 92 51 01 	sts	0x0151, r1	; 0x800151 <pwmIncreasing>
	OCR1A = 0;
     70a:	10 92 89 00 	sts	0x0089, r1	; 0x800089 <__TEXT_REGION_LENGTH__+0x7f8089>
     70e:	10 92 88 00 	sts	0x0088, r1	; 0x800088 <__TEXT_REGION_LENGTH__+0x7f8088>
	TCCR1A &= ~(1 << COM1A1); // Îňęëţ÷ŕĺě âűőîä ŘČĚ
     712:	e0 e8       	ldi	r30, 0x80	; 128
     714:	f0 e0       	ldi	r31, 0x00	; 0
     716:	80 81       	ld	r24, Z
     718:	8f 77       	andi	r24, 0x7F	; 127
     71a:	80 83       	st	Z, r24
	PORTB &= ~(1 << PWM_PIN); // Ďđčíóäčňĺëüíî ńňŕâčě 0
     71c:	85 b1       	in	r24, 0x05	; 5
     71e:	8d 7f       	andi	r24, 0xFD	; 253
     720:	85 b9       	out	0x05, r24	; 5
     722:	08 95       	ret

00000724 <startPWMUp>:
}

void startPWMUp() {
	currentDuty = 0;
     724:	10 92 02 01 	sts	0x0102, r1	; 0x800102 <currentDuty+0x1>
     728:	10 92 01 01 	sts	0x0101, r1	; 0x800101 <currentDuty>
	OCR1A = 0;          // ? ÎÁßÇŔŇĹËÜÍÎ, číŕ÷ĺ áóäĺň âńďëĺńę
     72c:	10 92 89 00 	sts	0x0089, r1	; 0x800089 <__TEXT_REGION_LENGTH__+0x7f8089>
     730:	10 92 88 00 	sts	0x0088, r1	; 0x800088 <__TEXT_REGION_LENGTH__+0x7f8088>
	enablePWM();
     734:	0e 94 76 03 	call	0x6ec	; 0x6ec <enablePWM>
	pwmLastTick = rail_switch_step_counter;
     738:	80 91 58 01 	lds	r24, 0x0158	; 0x800158 <rail_switch_step_counter>
     73c:	90 91 59 01 	lds	r25, 0x0159	; 0x800159 <rail_switch_step_counter+0x1>
     740:	a0 e0       	ldi	r26, 0x00	; 0
     742:	b0 e0       	ldi	r27, 0x00	; 0
     744:	80 93 4d 01 	sts	0x014D, r24	; 0x80014d <pwmLastTick>
     748:	90 93 4e 01 	sts	0x014E, r25	; 0x80014e <pwmLastTick+0x1>
     74c:	a0 93 4f 01 	sts	0x014F, r26	; 0x80014f <pwmLastTick+0x2>
     750:	b0 93 50 01 	sts	0x0150, r27	; 0x800150 <pwmLastTick+0x3>
	pwmIncreasing = 1;	
     754:	81 e0       	ldi	r24, 0x01	; 1
     756:	80 93 51 01 	sts	0x0151, r24	; 0x800151 <pwmIncreasing>
     75a:	08 95       	ret

0000075c <processPWMUp>:



void processPWMUp() {
	
	if (!pwmIncreasing) return;
     75c:	80 91 51 01 	lds	r24, 0x0151	; 0x800151 <pwmIncreasing>
     760:	88 23       	and	r24, r24
     762:	09 f4       	brne	.+2      	; 0x766 <processPWMUp+0xa>
     764:	3f c0       	rjmp	.+126    	; 0x7e4 <processPWMUp+0x88>
	
	if ((rail_switch_step_counter - pwmLastTick) >= PWM_DELAY) {
     766:	80 91 58 01 	lds	r24, 0x0158	; 0x800158 <rail_switch_step_counter>
     76a:	90 91 59 01 	lds	r25, 0x0159	; 0x800159 <rail_switch_step_counter+0x1>
     76e:	a0 e0       	ldi	r26, 0x00	; 0
     770:	b0 e0       	ldi	r27, 0x00	; 0
     772:	40 91 4d 01 	lds	r20, 0x014D	; 0x80014d <pwmLastTick>
     776:	50 91 4e 01 	lds	r21, 0x014E	; 0x80014e <pwmLastTick+0x1>
     77a:	60 91 4f 01 	lds	r22, 0x014F	; 0x80014f <pwmLastTick+0x2>
     77e:	70 91 50 01 	lds	r23, 0x0150	; 0x800150 <pwmLastTick+0x3>
     782:	84 1b       	sub	r24, r20
     784:	95 0b       	sbc	r25, r21
     786:	a6 0b       	sbc	r26, r22
     788:	b7 0b       	sbc	r27, r23
     78a:	c2 97       	sbiw	r24, 0x32	; 50
     78c:	a1 05       	cpc	r26, r1
     78e:	b1 05       	cpc	r27, r1
     790:	48 f1       	brcs	.+82     	; 0x7e4 <processPWMUp+0x88>
		
		pwmLastTick = rail_switch_step_counter;
     792:	80 91 58 01 	lds	r24, 0x0158	; 0x800158 <rail_switch_step_counter>
     796:	90 91 59 01 	lds	r25, 0x0159	; 0x800159 <rail_switch_step_counter+0x1>
     79a:	a0 e0       	ldi	r26, 0x00	; 0
     79c:	b0 e0       	ldi	r27, 0x00	; 0
     79e:	80 93 4d 01 	sts	0x014D, r24	; 0x80014d <pwmLastTick>
     7a2:	90 93 4e 01 	sts	0x014E, r25	; 0x80014e <pwmLastTick+0x1>
     7a6:	a0 93 4f 01 	sts	0x014F, r26	; 0x80014f <pwmLastTick+0x2>
     7aa:	b0 93 50 01 	sts	0x0150, r27	; 0x800150 <pwmLastTick+0x3>

		if (currentDuty <= PWM_MAX) {
     7ae:	80 91 01 01 	lds	r24, 0x0101	; 0x800101 <currentDuty>
     7b2:	90 91 02 01 	lds	r25, 0x0102	; 0x800102 <currentDuty+0x1>
     7b6:	8f 3f       	cpi	r24, 0xFF	; 255
     7b8:	91 05       	cpc	r25, r1
     7ba:	09 f0       	breq	.+2      	; 0x7be <processPWMUp+0x62>
     7bc:	60 f4       	brcc	.+24     	; 0x7d6 <processPWMUp+0x7a>
			
			OCR1A = currentDuty++;
     7be:	9c 01       	movw	r18, r24
     7c0:	2f 5f       	subi	r18, 0xFF	; 255
     7c2:	3f 4f       	sbci	r19, 0xFF	; 255
     7c4:	30 93 02 01 	sts	0x0102, r19	; 0x800102 <currentDuty+0x1>
     7c8:	20 93 01 01 	sts	0x0101, r18	; 0x800101 <currentDuty>
     7cc:	90 93 89 00 	sts	0x0089, r25	; 0x800089 <__TEXT_REGION_LENGTH__+0x7f8089>
     7d0:	80 93 88 00 	sts	0x0088, r24	; 0x800088 <__TEXT_REGION_LENGTH__+0x7f8088>
     7d4:	08 95       	ret
			
			} else {
			
			PORTB &= ~(1 << PWM_SWITCH_PIN);
     7d6:	85 b1       	in	r24, 0x05	; 5
     7d8:	8f 7e       	andi	r24, 0xEF	; 239
     7da:	85 b9       	out	0x05, r24	; 5
			
			disablePWM();
     7dc:	0e 94 83 03 	call	0x706	; 0x706 <disablePWM>
			
			pwmIncreasing = 0;
     7e0:	10 92 51 01 	sts	0x0151, r1	; 0x800151 <pwmIncreasing>
     7e4:	08 95       	ret

000007e6 <reset_route_state>:
	ROUTE_TO_TABLE_8,
	ROUTE_TO_TABLE_9
};

void reset_route_state(void) {
	initialized = 0;
     7e6:	10 92 57 01 	sts	0x0157, r1	; 0x800157 <initialized>
     7ea:	08 95       	ret

000007ec <activate_route_non_blocking>:
}

void activate_route_non_blocking(uint8_t tableIndex) {
     7ec:	0f 93       	push	r16
     7ee:	1f 93       	push	r17
     7f0:	cf 93       	push	r28
     7f2:	df 93       	push	r29
     7f4:	00 d0       	rcall	.+0      	; 0x7f6 <activate_route_non_blocking+0xa>
     7f6:	1f 92       	push	r1
     7f8:	cd b7       	in	r28, 0x3d	; 61
     7fa:	de b7       	in	r29, 0x3e	; 62
     7fc:	18 2f       	mov	r17, r24
	
	PowerSupplyOn();
     7fe:	0e 94 7b 02 	call	0x4f6	; 0x4f6 <PowerSupplyOn>

	tableIndex = tableIndex - 1;
     802:	6f ef       	ldi	r22, 0xFF	; 255
     804:	61 0f       	add	r22, r17
	
		static uint32_t lastTick = 0;
		static uint8_t currentBit = 0;  // Číäĺęń ňĺęóůĺăî ďđîâĺđ˙ĺěîăî áčňŕ
		uint8_t shiftData[NUM_OF_74HC595] = {0};
     806:	19 82       	std	Y+1, r1	; 0x01
     808:	1a 82       	std	Y+2, r1	; 0x02
     80a:	1b 82       	std	Y+3, r1	; 0x03
		
		if (!initialized) {
     80c:	80 91 57 01 	lds	r24, 0x0157	; 0x800157 <initialized>
     810:	81 11       	cpse	r24, r1
     812:	13 c0       	rjmp	.+38     	; 0x83a <__DATA_REGION_LENGTH__+0x3a>
			currentBit = 0;                  // Íŕ÷číŕĺě ń ďĺđâîăî áčňŕ
     814:	10 92 56 01 	sts	0x0156, r1	; 0x800156 <currentBit.1796>
			lastTick = rail_switch_step_counter;
     818:	80 91 58 01 	lds	r24, 0x0158	; 0x800158 <rail_switch_step_counter>
     81c:	90 91 59 01 	lds	r25, 0x0159	; 0x800159 <rail_switch_step_counter+0x1>
     820:	a0 e0       	ldi	r26, 0x00	; 0
     822:	b0 e0       	ldi	r27, 0x00	; 0
     824:	80 93 52 01 	sts	0x0152, r24	; 0x800152 <lastTick.1795>
     828:	90 93 53 01 	sts	0x0153, r25	; 0x800153 <lastTick.1795+0x1>
     82c:	a0 93 54 01 	sts	0x0154, r26	; 0x800154 <lastTick.1795+0x2>
     830:	b0 93 55 01 	sts	0x0155, r27	; 0x800155 <lastTick.1795+0x3>
			initialized = 1;
     834:	81 e0       	ldi	r24, 0x01	; 1
     836:	80 93 57 01 	sts	0x0157, r24	; 0x800157 <initialized>
		}

	if ((rail_switch_step_counter - lastTick) >= SWITCH_PAUSE_TIME) {
     83a:	80 91 58 01 	lds	r24, 0x0158	; 0x800158 <rail_switch_step_counter>
     83e:	90 91 59 01 	lds	r25, 0x0159	; 0x800159 <rail_switch_step_counter+0x1>
     842:	a0 e0       	ldi	r26, 0x00	; 0
     844:	b0 e0       	ldi	r27, 0x00	; 0
     846:	00 91 52 01 	lds	r16, 0x0152	; 0x800152 <lastTick.1795>
     84a:	10 91 53 01 	lds	r17, 0x0153	; 0x800153 <lastTick.1795+0x1>
     84e:	20 91 54 01 	lds	r18, 0x0154	; 0x800154 <lastTick.1795+0x2>
     852:	30 91 55 01 	lds	r19, 0x0155	; 0x800155 <lastTick.1795+0x3>
     856:	80 1b       	sub	r24, r16
     858:	91 0b       	sbc	r25, r17
     85a:	a2 0b       	sbc	r26, r18
     85c:	b3 0b       	sbc	r27, r19
     85e:	84 3f       	cpi	r24, 0xF4	; 244
     860:	91 40       	sbci	r25, 0x01	; 1
     862:	a1 05       	cpc	r26, r1
     864:	b1 05       	cpc	r27, r1
     866:	08 f4       	brcc	.+2      	; 0x86a <__DATA_REGION_LENGTH__+0x6a>
     868:	51 c0       	rjmp	.+162    	; 0x90c <__stack+0xd>
		lastTick = rail_switch_step_counter;
     86a:	80 91 58 01 	lds	r24, 0x0158	; 0x800158 <rail_switch_step_counter>
     86e:	90 91 59 01 	lds	r25, 0x0159	; 0x800159 <rail_switch_step_counter+0x1>
     872:	a0 e0       	ldi	r26, 0x00	; 0
     874:	b0 e0       	ldi	r27, 0x00	; 0
     876:	80 93 52 01 	sts	0x0152, r24	; 0x800152 <lastTick.1795>
     87a:	90 93 53 01 	sts	0x0153, r25	; 0x800153 <lastTick.1795+0x1>
     87e:	a0 93 54 01 	sts	0x0154, r26	; 0x800154 <lastTick.1795+0x2>
     882:	b0 93 55 01 	sts	0x0155, r27	; 0x800155 <lastTick.1795+0x3>

		// Ďđîďóńęŕĺě íóëč
		while (currentBit < (NUM_BITS_74HC595*2) && !(routeSwitches[tableIndex] & (1 << currentBit))) {
     886:	04 c0       	rjmp	.+8      	; 0x890 <__DATA_REGION_LENGTH__+0x90>
			currentBit++;
     888:	81 e0       	ldi	r24, 0x01	; 1
     88a:	89 0f       	add	r24, r25
     88c:	80 93 56 01 	sts	0x0156, r24	; 0x800156 <currentBit.1796>

	if ((rail_switch_step_counter - lastTick) >= SWITCH_PAUSE_TIME) {
		lastTick = rail_switch_step_counter;

		// Ďđîďóńęŕĺě íóëč
		while (currentBit < (NUM_BITS_74HC595*2) && !(routeSwitches[tableIndex] & (1 << currentBit))) {
     890:	90 91 56 01 	lds	r25, 0x0156	; 0x800156 <currentBit.1796>
     894:	90 31       	cpi	r25, 0x10	; 16
     896:	a0 f4       	brcc	.+40     	; 0x8c0 <__DATA_REGION_LENGTH__+0xc0>
     898:	e6 2f       	mov	r30, r22
     89a:	f0 e0       	ldi	r31, 0x00	; 0
     89c:	ee 0f       	add	r30, r30
     89e:	ff 1f       	adc	r31, r31
     8a0:	ec 5c       	subi	r30, 0xCC	; 204
     8a2:	fe 4f       	sbci	r31, 0xFE	; 254
     8a4:	40 81       	ld	r20, Z
     8a6:	51 81       	ldd	r21, Z+1	; 0x01
     8a8:	21 e0       	ldi	r18, 0x01	; 1
     8aa:	30 e0       	ldi	r19, 0x00	; 0
     8ac:	09 2e       	mov	r0, r25
     8ae:	02 c0       	rjmp	.+4      	; 0x8b4 <__DATA_REGION_LENGTH__+0xb4>
     8b0:	22 0f       	add	r18, r18
     8b2:	33 1f       	adc	r19, r19
     8b4:	0a 94       	dec	r0
     8b6:	e2 f7       	brpl	.-8      	; 0x8b0 <__DATA_REGION_LENGTH__+0xb0>
     8b8:	24 23       	and	r18, r20
     8ba:	35 23       	and	r19, r21
     8bc:	23 2b       	or	r18, r19
     8be:	21 f3       	breq	.-56     	; 0x888 <__DATA_REGION_LENGTH__+0x88>
			currentBit++;
		}

		if (currentBit < (NUM_BITS_74HC595*2)) {
     8c0:	90 31       	cpi	r25, 0x10	; 16
     8c2:	e8 f4       	brcc	.+58     	; 0x8fe <__DATA_REGION_LENGTH__+0xfe>
			if (currentBit < NUM_BITS_74HC595) {
     8c4:	98 30       	cpi	r25, 0x08	; 8
     8c6:	38 f4       	brcc	.+14     	; 0x8d6 <__DATA_REGION_LENGTH__+0xd6>
				shiftData[0] |= (1 << currentBit);
     8c8:	81 e0       	ldi	r24, 0x01	; 1
     8ca:	01 c0       	rjmp	.+2      	; 0x8ce <__DATA_REGION_LENGTH__+0xce>
     8cc:	88 0f       	add	r24, r24
     8ce:	9a 95       	dec	r25
     8d0:	ea f7       	brpl	.-6      	; 0x8cc <__DATA_REGION_LENGTH__+0xcc>
     8d2:	89 83       	std	Y+1, r24	; 0x01
     8d4:	09 c0       	rjmp	.+18     	; 0x8e8 <__DATA_REGION_LENGTH__+0xe8>
				} else {
				shiftData[1] |= (1 << (currentBit - NUM_BITS_74HC595));
     8d6:	89 2f       	mov	r24, r25
     8d8:	90 e0       	ldi	r25, 0x00	; 0
     8da:	08 97       	sbiw	r24, 0x08	; 8
     8dc:	91 e0       	ldi	r25, 0x01	; 1
     8de:	01 c0       	rjmp	.+2      	; 0x8e2 <__DATA_REGION_LENGTH__+0xe2>
     8e0:	99 0f       	add	r25, r25
     8e2:	8a 95       	dec	r24
     8e4:	ea f7       	brpl	.-6      	; 0x8e0 <__DATA_REGION_LENGTH__+0xe0>
     8e6:	9a 83       	std	Y+2, r25	; 0x02
			}
			shiftOutMultiple(shiftData, NUM_OF_74HC595);
     8e8:	63 e0       	ldi	r22, 0x03	; 3
     8ea:	ce 01       	movw	r24, r28
     8ec:	01 96       	adiw	r24, 0x01	; 1
     8ee:	0e 94 dd 04 	call	0x9ba	; 0x9ba <shiftOutMultiple>
			currentBit++;
     8f2:	80 91 56 01 	lds	r24, 0x0156	; 0x800156 <currentBit.1796>
     8f6:	8f 5f       	subi	r24, 0xFF	; 255
     8f8:	80 93 56 01 	sts	0x0156, r24	; 0x800156 <currentBit.1796>
     8fc:	07 c0       	rjmp	.+14     	; 0x90c <__stack+0xd>
			} 
			else {
			MoveLocoForward(tableIndex);
     8fe:	86 2f       	mov	r24, r22
     900:	0e 94 7f 02 	call	0x4fe	; 0x4fe <MoveLocoForward>
			routeSetupInProgress = 0;
     904:	10 92 46 01 	sts	0x0146, r1	; 0x800146 <__data_end>
			initialized = 0;
     908:	10 92 57 01 	sts	0x0157, r1	; 0x800157 <initialized>
		}
	}
}
     90c:	0f 90       	pop	r0
     90e:	0f 90       	pop	r0
     910:	0f 90       	pop	r0
     912:	df 91       	pop	r29
     914:	cf 91       	pop	r28
     916:	1f 91       	pop	r17
     918:	0f 91       	pop	r16
     91a:	08 95       	ret

0000091c <read_74HC165>:
}

uint8_t read_74HC165(void) {
	uint8_t data = 0;

	PORTD &= ~(1 << LATCH_74HC165);
     91c:	8b b1       	in	r24, 0x0b	; 11
     91e:	8f 7b       	andi	r24, 0xBF	; 191
     920:	8b b9       	out	0x0b, r24	; 11
	#else
		//round up by default
		__ticks_dc = (uint32_t)(ceil(fabs(__tmp)));
	#endif

	__builtin_avr_delay_cycles(__ticks_dc);
     922:	00 c0       	rjmp	.+0      	; 0x924 <read_74HC165+0x8>
     924:	00 c0       	rjmp	.+0      	; 0x926 <read_74HC165+0xa>
     926:	00 00       	nop
	_delay_us(5);
	PORTD |= (1 << LATCH_74HC165);
     928:	8b b1       	in	r24, 0x0b	; 11
     92a:	80 64       	ori	r24, 0x40	; 64
     92c:	8b b9       	out	0x0b, r24	; 11

	for (uint8_t i = 0; i < NUM_BITS_74HC595; i++) {
     92e:	20 e0       	ldi	r18, 0x00	; 0
	uint8_t initialData[NUM_OF_74HC595] = {0};
	shiftOutMultiple(initialData, NUM_OF_74HC595);
}

uint8_t read_74HC165(void) {
	uint8_t data = 0;
     930:	80 e0       	ldi	r24, 0x00	; 0

	PORTD &= ~(1 << LATCH_74HC165);
	_delay_us(5);
	PORTD |= (1 << LATCH_74HC165);

	for (uint8_t i = 0; i < NUM_BITS_74HC595; i++) {
     932:	10 c0       	rjmp	.+32     	; 0x954 <read_74HC165+0x38>
		data <<= 1;
     934:	88 0f       	add	r24, r24
		PORTD &= ~(1 << CLOCK_74HC165);
     936:	9b b1       	in	r25, 0x0b	; 11
     938:	9f 7d       	andi	r25, 0xDF	; 223
     93a:	9b b9       	out	0x0b, r25	; 11
     93c:	00 c0       	rjmp	.+0      	; 0x93e <read_74HC165+0x22>
     93e:	00 c0       	rjmp	.+0      	; 0x940 <read_74HC165+0x24>
     940:	00 00       	nop
		_delay_us(5);

		if (PIND & (1 << DATA_74HC165)) {
     942:	4f 99       	sbic	0x09, 7	; 9
			data |= 1;
     944:	81 60       	ori	r24, 0x01	; 1
		}

		PORTD |= (1 << CLOCK_74HC165);
     946:	9b b1       	in	r25, 0x0b	; 11
     948:	90 62       	ori	r25, 0x20	; 32
     94a:	9b b9       	out	0x0b, r25	; 11
     94c:	00 c0       	rjmp	.+0      	; 0x94e <read_74HC165+0x32>
     94e:	00 c0       	rjmp	.+0      	; 0x950 <read_74HC165+0x34>
     950:	00 00       	nop

	PORTD &= ~(1 << LATCH_74HC165);
	_delay_us(5);
	PORTD |= (1 << LATCH_74HC165);

	for (uint8_t i = 0; i < NUM_BITS_74HC595; i++) {
     952:	2f 5f       	subi	r18, 0xFF	; 255
     954:	28 30       	cpi	r18, 0x08	; 8
     956:	70 f3       	brcs	.-36     	; 0x934 <read_74HC165+0x18>
		PORTD |= (1 << CLOCK_74HC165);
		_delay_us(5);
	}

	return data;
}
     958:	08 95       	ret

0000095a <init_74HC595_ports>:

void init_74HC595_ports(void) {
	DDRD |= (1 << DATA_74HC595) | (1 << CLOCK_74HC595) | (1 << LATCH_74HC595);
     95a:	8a b1       	in	r24, 0x0a	; 10
     95c:	8c 61       	ori	r24, 0x1C	; 28
     95e:	8a b9       	out	0x0a, r24	; 10
	PORTD &= ~((1 << DATA_74HC595) | (1 << CLOCK_74HC595) | (1 << LATCH_74HC595));
     960:	8b b1       	in	r24, 0x0b	; 11
     962:	83 7e       	andi	r24, 0xE3	; 227
     964:	8b b9       	out	0x0b, r24	; 11
     966:	08 95       	ret

00000968 <shiftOut>:
}

void shiftOut(uint8_t data) {
	for (uint8_t i = 0; i < NUM_BITS_74HC595; i++) {
     968:	90 e0       	ldi	r25, 0x00	; 0
     96a:	1c c0       	rjmp	.+56     	; 0x9a4 <shiftOut+0x3c>
		if (data & (1 << (NUM_BITS_74HC595 - 1 - i))) {
     96c:	47 e0       	ldi	r20, 0x07	; 7
     96e:	50 e0       	ldi	r21, 0x00	; 0
     970:	49 1b       	sub	r20, r25
     972:	51 09       	sbc	r21, r1
     974:	28 2f       	mov	r18, r24
     976:	30 e0       	ldi	r19, 0x00	; 0
     978:	02 c0       	rjmp	.+4      	; 0x97e <shiftOut+0x16>
     97a:	35 95       	asr	r19
     97c:	27 95       	ror	r18
     97e:	4a 95       	dec	r20
     980:	e2 f7       	brpl	.-8      	; 0x97a <shiftOut+0x12>
     982:	20 ff       	sbrs	r18, 0
     984:	04 c0       	rjmp	.+8      	; 0x98e <shiftOut+0x26>
			PORTD |= (1 << DATA_74HC595);
     986:	2b b1       	in	r18, 0x0b	; 11
     988:	24 60       	ori	r18, 0x04	; 4
     98a:	2b b9       	out	0x0b, r18	; 11
     98c:	03 c0       	rjmp	.+6      	; 0x994 <shiftOut+0x2c>
			} else {
			PORTD &= ~(1 << DATA_74HC595);
     98e:	2b b1       	in	r18, 0x0b	; 11
     990:	2b 7f       	andi	r18, 0xFB	; 251
     992:	2b b9       	out	0x0b, r18	; 11
		}

		PORTD |= (1 << CLOCK_74HC595);
     994:	2b b1       	in	r18, 0x0b	; 11
     996:	28 60       	ori	r18, 0x08	; 8
     998:	2b b9       	out	0x0b, r18	; 11
     99a:	00 00       	nop
		_delay_us(1);
		PORTD &= ~(1 << CLOCK_74HC595);
     99c:	2b b1       	in	r18, 0x0b	; 11
     99e:	27 7f       	andi	r18, 0xF7	; 247
     9a0:	2b b9       	out	0x0b, r18	; 11
	DDRD |= (1 << DATA_74HC595) | (1 << CLOCK_74HC595) | (1 << LATCH_74HC595);
	PORTD &= ~((1 << DATA_74HC595) | (1 << CLOCK_74HC595) | (1 << LATCH_74HC595));
}

void shiftOut(uint8_t data) {
	for (uint8_t i = 0; i < NUM_BITS_74HC595; i++) {
     9a2:	9f 5f       	subi	r25, 0xFF	; 255
     9a4:	98 30       	cpi	r25, 0x08	; 8
     9a6:	10 f3       	brcs	.-60     	; 0x96c <shiftOut+0x4>

		PORTD |= (1 << CLOCK_74HC595);
		_delay_us(1);
		PORTD &= ~(1 << CLOCK_74HC595);
	}
}
     9a8:	08 95       	ret

000009aa <latchData>:

void latchData(void) {
	PORTD |= (1 << LATCH_74HC595);
     9aa:	8b b1       	in	r24, 0x0b	; 11
     9ac:	80 61       	ori	r24, 0x10	; 16
     9ae:	8b b9       	out	0x0b, r24	; 11
     9b0:	00 00       	nop
	_delay_us(1);
	PORTD &= ~(1 << LATCH_74HC595);
     9b2:	8b b1       	in	r24, 0x0b	; 11
     9b4:	8f 7e       	andi	r24, 0xEF	; 239
     9b6:	8b b9       	out	0x0b, r24	; 11
     9b8:	08 95       	ret

000009ba <shiftOutMultiple>:
}

void shiftOutMultiple(uint8_t *data, uint8_t count) {
     9ba:	0f 93       	push	r16
     9bc:	1f 93       	push	r17
     9be:	cf 93       	push	r28
     9c0:	df 93       	push	r29
     9c2:	8c 01       	movw	r16, r24
     9c4:	d6 2f       	mov	r29, r22
	for (uint8_t i = 0; i < count; i++) {
     9c6:	c0 e0       	ldi	r28, 0x00	; 0
     9c8:	07 c0       	rjmp	.+14     	; 0x9d8 <shiftOutMultiple+0x1e>
		shiftOut(data[i]);
     9ca:	f8 01       	movw	r30, r16
     9cc:	ec 0f       	add	r30, r28
     9ce:	f1 1d       	adc	r31, r1
     9d0:	80 81       	ld	r24, Z
     9d2:	0e 94 b4 04 	call	0x968	; 0x968 <shiftOut>
	_delay_us(1);
	PORTD &= ~(1 << LATCH_74HC595);
}

void shiftOutMultiple(uint8_t *data, uint8_t count) {
	for (uint8_t i = 0; i < count; i++) {
     9d6:	cf 5f       	subi	r28, 0xFF	; 255
     9d8:	cd 17       	cp	r28, r29
     9da:	b8 f3       	brcs	.-18     	; 0x9ca <shiftOutMultiple+0x10>
		shiftOut(data[i]);
	}
	latchData();
     9dc:	0e 94 d5 04 	call	0x9aa	; 0x9aa <latchData>
}
     9e0:	df 91       	pop	r29
     9e2:	cf 91       	pop	r28
     9e4:	1f 91       	pop	r17
     9e6:	0f 91       	pop	r16
     9e8:	08 95       	ret

000009ea <init_74HC165_ports>:
#include "shift_registers.h"
#include "config.h"

void init_74HC165_ports(void) {
     9ea:	cf 93       	push	r28
     9ec:	df 93       	push	r29
     9ee:	00 d0       	rcall	.+0      	; 0x9f0 <init_74HC165_ports+0x6>
     9f0:	1f 92       	push	r1
     9f2:	cd b7       	in	r28, 0x3d	; 61
     9f4:	de b7       	in	r29, 0x3e	; 62
	DDRD |= (1 << CLOCK_74HC165) | (1 << LATCH_74HC165); // PD5 ? PD6 - ??????
     9f6:	8a b1       	in	r24, 0x0a	; 10
     9f8:	80 66       	ori	r24, 0x60	; 96
     9fa:	8a b9       	out	0x0a, r24	; 10
	DDRD &= ~(1 << DATA_74HC165);                        // PD7 - ????
     9fc:	8a b1       	in	r24, 0x0a	; 10
     9fe:	8f 77       	andi	r24, 0x7F	; 127
     a00:	8a b9       	out	0x0a, r24	; 10
	PORTD &= ~(1 << DATA_74HC165);
     a02:	8b b1       	in	r24, 0x0b	; 11
     a04:	8f 77       	andi	r24, 0x7F	; 127
     a06:	8b b9       	out	0x0b, r24	; 11
	
	uint8_t initialData[NUM_OF_74HC595] = {0};
     a08:	19 82       	std	Y+1, r1	; 0x01
     a0a:	1a 82       	std	Y+2, r1	; 0x02
     a0c:	1b 82       	std	Y+3, r1	; 0x03
	shiftOutMultiple(initialData, NUM_OF_74HC595);
     a0e:	63 e0       	ldi	r22, 0x03	; 3
     a10:	ce 01       	movw	r24, r28
     a12:	01 96       	adiw	r24, 0x01	; 1
     a14:	0e 94 dd 04 	call	0x9ba	; 0x9ba <shiftOutMultiple>
}
     a18:	0f 90       	pop	r0
     a1a:	0f 90       	pop	r0
     a1c:	0f 90       	pop	r0
     a1e:	df 91       	pop	r29
     a20:	cf 91       	pop	r28
     a22:	08 95       	ret

00000a24 <timer0_init>:

// Íóćíî âűçâŕňü ôóíęöčţ process_route(), ęîňîđŕ˙ îďđĺäĺëĺíŕ â äđóăîě ôŕéëĺ.
extern void process_route(void);

void timer0_init(void) {
	TCCR0A |= (1 << WGM01); // CTC Mode
     a24:	84 b5       	in	r24, 0x24	; 36
     a26:	82 60       	ori	r24, 0x02	; 2
     a28:	84 bd       	out	0x24, r24	; 36
	TCCR0B |= (1 << CS01) | (1 << CS00); // Ďđĺääĺëčňĺëü 64
     a2a:	85 b5       	in	r24, 0x25	; 37
     a2c:	83 60       	ori	r24, 0x03	; 3
     a2e:	85 bd       	out	0x25, r24	; 37
	OCR0A = 249; // Ďđĺđűâŕíčĺ đŕç â 1 ěń
     a30:	89 ef       	ldi	r24, 0xF9	; 249
     a32:	87 bd       	out	0x27, r24	; 39
	TIMSK0 |= (1 << OCIE0A); // Âęëţ÷ŕĺě ďđĺđűâŕíčĺ ďî ńîâďŕäĺíčţ
     a34:	ee e6       	ldi	r30, 0x6E	; 110
     a36:	f0 e0       	ldi	r31, 0x00	; 0
     a38:	80 81       	ld	r24, Z
     a3a:	82 60       	ori	r24, 0x02	; 2
     a3c:	80 83       	st	Z, r24

	// Đŕçđĺřŕĺě ďđĺđűâŕíčĺ ďî ńîâďŕäĺíčţ ń OCR0A
	TIMSK0 |= (1 << OCIE0A);
     a3e:	80 81       	ld	r24, Z
     a40:	82 60       	ori	r24, 0x02	; 2
     a42:	80 83       	st	Z, r24
     a44:	08 95       	ret

00000a46 <__vector_14>:
}

// Îáđŕáîň÷čę ďđĺđűâŕíč˙ ďî ńîâďŕäĺíčţ ń OCR0A
ISR(TIMER0_COMPA_vect) {
     a46:	1f 92       	push	r1
     a48:	0f 92       	push	r0
     a4a:	0f b6       	in	r0, 0x3f	; 63
     a4c:	0f 92       	push	r0
     a4e:	11 24       	eor	r1, r1
     a50:	8f 93       	push	r24
     a52:	9f 93       	push	r25
	rail_switch_step_counter++;    // Óâĺëč÷čâŕĺě ń÷¸ň÷čę ęŕćäűĺ ~5 ěń
     a54:	80 91 58 01 	lds	r24, 0x0158	; 0x800158 <rail_switch_step_counter>
     a58:	90 91 59 01 	lds	r25, 0x0159	; 0x800159 <rail_switch_step_counter+0x1>
     a5c:	01 96       	adiw	r24, 0x01	; 1
     a5e:	90 93 59 01 	sts	0x0159, r25	; 0x800159 <rail_switch_step_counter+0x1>
     a62:	80 93 58 01 	sts	0x0158, r24	; 0x800158 <rail_switch_step_counter>
}
     a66:	9f 91       	pop	r25
     a68:	8f 91       	pop	r24
     a6a:	0f 90       	pop	r0
     a6c:	0f be       	out	0x3f, r0	; 63
     a6e:	0f 90       	pop	r0
     a70:	1f 90       	pop	r1
     a72:	18 95       	reti

00000a74 <UART_init>:
#include <stddef.h>

#define TIMEOUT_MS 100  // Ňŕéěŕóň îćčäŕíč˙ â ěčëëčńĺęóíäŕő

void UART_init(void) {
	UBRR0H = (UBRR_VALUE >> 8);
     a74:	10 92 c5 00 	sts	0x00C5, r1	; 0x8000c5 <__TEXT_REGION_LENGTH__+0x7f80c5>
	UBRR0L = UBRR_VALUE;
     a78:	87 e6       	ldi	r24, 0x67	; 103
     a7a:	80 93 c4 00 	sts	0x00C4, r24	; 0x8000c4 <__TEXT_REGION_LENGTH__+0x7f80c4>
	UCSR0B = (1 << TXEN0) | (1 << RXEN0);
     a7e:	88 e1       	ldi	r24, 0x18	; 24
     a80:	80 93 c1 00 	sts	0x00C1, r24	; 0x8000c1 <__TEXT_REGION_LENGTH__+0x7f80c1>
	UCSR0C = (1 << UCSZ01) | (1 << UCSZ00);
     a84:	86 e0       	ldi	r24, 0x06	; 6
     a86:	80 93 c2 00 	sts	0x00C2, r24	; 0x8000c2 <__TEXT_REGION_LENGTH__+0x7f80c2>
     a8a:	08 95       	ret

00000a8c <UART_send>:
}

void UART_send(uint8_t data) {
	while (!(UCSR0A & (1 << UDRE0)));
     a8c:	90 91 c0 00 	lds	r25, 0x00C0	; 0x8000c0 <__TEXT_REGION_LENGTH__+0x7f80c0>
     a90:	95 ff       	sbrs	r25, 5
     a92:	fc cf       	rjmp	.-8      	; 0xa8c <UART_send>
	UDR0 = data;
     a94:	80 93 c6 00 	sts	0x00C6, r24	; 0x8000c6 <__TEXT_REGION_LENGTH__+0x7f80c6>
     a98:	08 95       	ret

00000a9a <UART_receive>:
}

uint8_t UART_receive(void) {
	uint16_t timeout = TIMEOUT_MS * (F_CPU / 1000 / 64);
     a9a:	88 ea       	ldi	r24, 0xA8	; 168
     a9c:	91 e6       	ldi	r25, 0x61	; 97
	while (!(UCSR0A & (1 << RXC0))) {
     a9e:	02 c0       	rjmp	.+4      	; 0xaa4 <UART_receive+0xa>
		if (--timeout == 0) {
     aa0:	01 97       	sbiw	r24, 0x01	; 1
     aa2:	39 f0       	breq	.+14     	; 0xab2 <UART_receive+0x18>
	UDR0 = data;
}

uint8_t UART_receive(void) {
	uint16_t timeout = TIMEOUT_MS * (F_CPU / 1000 / 64);
	while (!(UCSR0A & (1 << RXC0))) {
     aa4:	20 91 c0 00 	lds	r18, 0x00C0	; 0x8000c0 <__TEXT_REGION_LENGTH__+0x7f80c0>
     aa8:	22 23       	and	r18, r18
     aaa:	d4 f7       	brge	.-12     	; 0xaa0 <UART_receive+0x6>
		if (--timeout == 0) {
			return 0xFF; // Îřčáęŕ: äŕííűĺ íĺ ďđčřëč
		}
	}
	return UDR0;
     aac:	80 91 c6 00 	lds	r24, 0x00C6	; 0x8000c6 <__TEXT_REGION_LENGTH__+0x7f80c6>
     ab0:	08 95       	ret

uint8_t UART_receive(void) {
	uint16_t timeout = TIMEOUT_MS * (F_CPU / 1000 / 64);
	while (!(UCSR0A & (1 << RXC0))) {
		if (--timeout == 0) {
			return 0xFF; // Îřčáęŕ: äŕííűĺ íĺ ďđčřëč
     ab2:	8f ef       	ldi	r24, 0xFF	; 255
		}
	}
	return UDR0;
}
     ab4:	08 95       	ret

00000ab6 <crc8>:
	for (uint8_t i = 0; i < 6; i++) {
		UART_send(packet[i]);
	}
}

uint8_t crc8(const uint8_t *data, uint8_t len) {
     ab6:	ac 01       	movw	r20, r24
	uint8_t crc = 0xFF;
	for (uint8_t i = 0; i < len; i++) {
     ab8:	30 e0       	ldi	r19, 0x00	; 0
		UART_send(packet[i]);
	}
}

uint8_t crc8(const uint8_t *data, uint8_t len) {
	uint8_t crc = 0xFF;
     aba:	8f ef       	ldi	r24, 0xFF	; 255
	for (uint8_t i = 0; i < len; i++) {
     abc:	14 c0       	rjmp	.+40     	; 0xae6 <crc8+0x30>
		crc ^= data[i];
     abe:	fa 01       	movw	r30, r20
     ac0:	e3 0f       	add	r30, r19
     ac2:	f1 1d       	adc	r31, r1
     ac4:	90 81       	ld	r25, Z
     ac6:	89 27       	eor	r24, r25
		for (uint8_t j = 0; j < 8; j++) {
     ac8:	20 e0       	ldi	r18, 0x00	; 0
     aca:	0a c0       	rjmp	.+20     	; 0xae0 <crc8+0x2a>
			if (crc & 0x80)
     acc:	88 23       	and	r24, r24
     ace:	34 f4       	brge	.+12     	; 0xadc <crc8+0x26>
			crc = (crc << 1) ^ 0x07;
     ad0:	90 e0       	ldi	r25, 0x00	; 0
     ad2:	88 0f       	add	r24, r24
     ad4:	99 1f       	adc	r25, r25
     ad6:	97 e0       	ldi	r25, 0x07	; 7
     ad8:	89 27       	eor	r24, r25
     ada:	01 c0       	rjmp	.+2      	; 0xade <crc8+0x28>
			else
			crc <<= 1;
     adc:	88 0f       	add	r24, r24

uint8_t crc8(const uint8_t *data, uint8_t len) {
	uint8_t crc = 0xFF;
	for (uint8_t i = 0; i < len; i++) {
		crc ^= data[i];
		for (uint8_t j = 0; j < 8; j++) {
     ade:	2f 5f       	subi	r18, 0xFF	; 255
     ae0:	28 30       	cpi	r18, 0x08	; 8
     ae2:	a0 f3       	brcs	.-24     	; 0xacc <crc8+0x16>
	}
}

uint8_t crc8(const uint8_t *data, uint8_t len) {
	uint8_t crc = 0xFF;
	for (uint8_t i = 0; i < len; i++) {
     ae4:	3f 5f       	subi	r19, 0xFF	; 255
     ae6:	36 17       	cp	r19, r22
     ae8:	50 f3       	brcs	.-44     	; 0xabe <crc8+0x8>
			else
			crc <<= 1;
		}
	}
	return crc;
}
     aea:	08 95       	ret

00000aec <send_command>:
		}
	}
	return UDR0;
}

void send_command(uint8_t cmd, uint8_t table_id, uint8_t data) {
     aec:	1f 93       	push	r17
     aee:	cf 93       	push	r28
     af0:	df 93       	push	r29
     af2:	00 d0       	rcall	.+0      	; 0xaf4 <send_command+0x8>
     af4:	00 d0       	rcall	.+0      	; 0xaf6 <send_command+0xa>
     af6:	00 d0       	rcall	.+0      	; 0xaf8 <send_command+0xc>
     af8:	cd b7       	in	r28, 0x3d	; 61
     afa:	de b7       	in	r29, 0x3e	; 62
	uint8_t packet[6];
	packet[0] = 0x02;   // STX
     afc:	92 e0       	ldi	r25, 0x02	; 2
     afe:	99 83       	std	Y+1, r25	; 0x01
	packet[1] = cmd;
     b00:	8a 83       	std	Y+2, r24	; 0x02
	packet[2] = table_id;
     b02:	6b 83       	std	Y+3, r22	; 0x03
	packet[3] = data;
     b04:	4c 83       	std	Y+4, r20	; 0x04
	packet[4] = crc8(&packet[1], 3);
     b06:	63 e0       	ldi	r22, 0x03	; 3
     b08:	ce 01       	movw	r24, r28
     b0a:	02 96       	adiw	r24, 0x02	; 2
     b0c:	0e 94 5b 05 	call	0xab6	; 0xab6 <crc8>
     b10:	8d 83       	std	Y+5, r24	; 0x05
	packet[5] = 0x03;   // ETX
     b12:	83 e0       	ldi	r24, 0x03	; 3
     b14:	8e 83       	std	Y+6, r24	; 0x06

	for (uint8_t i = 0; i < 6; i++) {
     b16:	10 e0       	ldi	r17, 0x00	; 0
     b18:	0a c0       	rjmp	.+20     	; 0xb2e <send_command+0x42>
		UART_send(packet[i]);
     b1a:	e1 e0       	ldi	r30, 0x01	; 1
     b1c:	f0 e0       	ldi	r31, 0x00	; 0
     b1e:	ec 0f       	add	r30, r28
     b20:	fd 1f       	adc	r31, r29
     b22:	e1 0f       	add	r30, r17
     b24:	f1 1d       	adc	r31, r1
     b26:	80 81       	ld	r24, Z
     b28:	0e 94 46 05 	call	0xa8c	; 0xa8c <UART_send>
	packet[2] = table_id;
	packet[3] = data;
	packet[4] = crc8(&packet[1], 3);
	packet[5] = 0x03;   // ETX

	for (uint8_t i = 0; i < 6; i++) {
     b2c:	1f 5f       	subi	r17, 0xFF	; 255
     b2e:	16 30       	cpi	r17, 0x06	; 6
     b30:	a0 f3       	brcs	.-24     	; 0xb1a <send_command+0x2e>
		UART_send(packet[i]);
	}
}
     b32:	26 96       	adiw	r28, 0x06	; 6
     b34:	0f b6       	in	r0, 0x3f	; 63
     b36:	f8 94       	cli
     b38:	de bf       	out	0x3e, r29	; 62
     b3a:	0f be       	out	0x3f, r0	; 63
     b3c:	cd bf       	out	0x3d, r28	; 61
     b3e:	df 91       	pop	r29
     b40:	cf 91       	pop	r28
     b42:	1f 91       	pop	r17
     b44:	08 95       	ret

00000b46 <UART_receive_full_packet>:
	}
	return crc;
}

// Ĺäčíŕ˙ ôóíęöč˙ ďđč¸ěŕ ďŕęĺňŕ: ń÷čňűâŕĺň, ďđîâĺđ˙ĺň č âîçâđŕůŕĺň ńňđóęňóđó
UART_Packet UART_receive_full_packet(void) {
     b46:	ef 92       	push	r14
     b48:	ff 92       	push	r15
     b4a:	1f 93       	push	r17
     b4c:	cf 93       	push	r28
     b4e:	df 93       	push	r29
     b50:	00 d0       	rcall	.+0      	; 0xb52 <UART_receive_full_packet+0xc>
     b52:	00 d0       	rcall	.+0      	; 0xb54 <UART_receive_full_packet+0xe>
     b54:	00 d0       	rcall	.+0      	; 0xb56 <UART_receive_full_packet+0x10>
     b56:	cd b7       	in	r28, 0x3d	; 61
     b58:	de b7       	in	r29, 0x3e	; 62
	UART_Packet packet = {0, 0, 0, 0};
	uint8_t received[6];

	// Îćčäŕĺě STX (0x02)
	if (UART_receive() != 0x02) {
     b5a:	0e 94 4d 05 	call	0xa9a	; 0xa9a <UART_receive>
     b5e:	82 30       	cpi	r24, 0x02	; 2
     b60:	29 f0       	breq	.+10     	; 0xb6c <UART_receive_full_packet+0x26>
		return packet; // Ďŕęĺň íĺâŕëčäĺí
     b62:	60 e0       	ldi	r22, 0x00	; 0
     b64:	70 e0       	ldi	r23, 0x00	; 0
     b66:	80 e0       	ldi	r24, 0x00	; 0
     b68:	90 e0       	ldi	r25, 0x00	; 0
     b6a:	23 c0       	rjmp	.+70     	; 0xbb2 <UART_receive_full_packet+0x6c>
	}
	received[0] = 0x02;
     b6c:	82 e0       	ldi	r24, 0x02	; 2
     b6e:	89 83       	std	Y+1, r24	; 0x01

	// Ń÷čňűâŕĺě îńňŕâřčĺń˙ 5 áŕéň
	for (uint8_t i = 1; i < 6; i++) {
     b70:	11 e0       	ldi	r17, 0x01	; 1
     b72:	0c c0       	rjmp	.+24     	; 0xb8c <UART_receive_full_packet+0x46>
		received[i] = UART_receive();
     b74:	e1 2e       	mov	r14, r17
     b76:	f1 2c       	mov	r15, r1
     b78:	0e 94 4d 05 	call	0xa9a	; 0xa9a <UART_receive>
     b7c:	e1 e0       	ldi	r30, 0x01	; 1
     b7e:	f0 e0       	ldi	r31, 0x00	; 0
     b80:	ec 0f       	add	r30, r28
     b82:	fd 1f       	adc	r31, r29
     b84:	ee 0d       	add	r30, r14
     b86:	ff 1d       	adc	r31, r15
     b88:	80 83       	st	Z, r24
		return packet; // Ďŕęĺň íĺâŕëčäĺí
	}
	received[0] = 0x02;

	// Ń÷čňűâŕĺě îńňŕâřčĺń˙ 5 áŕéň
	for (uint8_t i = 1; i < 6; i++) {
     b8a:	1f 5f       	subi	r17, 0xFF	; 255
     b8c:	16 30       	cpi	r17, 0x06	; 6
     b8e:	90 f3       	brcs	.-28     	; 0xb74 <UART_receive_full_packet+0x2e>
		received[i] = UART_receive();
	}

	// Ďđîâĺđ˙ĺě ęîíňđîëüíóţ ńóěěó
	if (crc8(&received[1], 3) != received[4]) {
     b90:	63 e0       	ldi	r22, 0x03	; 3
     b92:	ce 01       	movw	r24, r28
     b94:	02 96       	adiw	r24, 0x02	; 2
     b96:	0e 94 5b 05 	call	0xab6	; 0xab6 <crc8>
     b9a:	9d 81       	ldd	r25, Y+5	; 0x05
     b9c:	89 17       	cp	r24, r25
     b9e:	29 f0       	breq	.+10     	; 0xbaa <UART_receive_full_packet+0x64>
		return packet; // Îřčáęŕ CRC – ďŕęĺň íĺâŕëčäĺí
     ba0:	60 e0       	ldi	r22, 0x00	; 0
     ba2:	70 e0       	ldi	r23, 0x00	; 0
     ba4:	80 e0       	ldi	r24, 0x00	; 0
     ba6:	90 e0       	ldi	r25, 0x00	; 0
     ba8:	04 c0       	rjmp	.+8      	; 0xbb2 <UART_receive_full_packet+0x6c>
	packet.cmd = received[1];
	packet.table_id = received[2];
	packet.param = received[3];
	packet.valid = 1;

	return packet;
     baa:	6a 81       	ldd	r22, Y+2	; 0x02
     bac:	7b 81       	ldd	r23, Y+3	; 0x03
     bae:	8c 81       	ldd	r24, Y+4	; 0x04
     bb0:	91 e0       	ldi	r25, 0x01	; 1
}
     bb2:	26 96       	adiw	r28, 0x06	; 6
     bb4:	0f b6       	in	r0, 0x3f	; 63
     bb6:	f8 94       	cli
     bb8:	de bf       	out	0x3e, r29	; 62
     bba:	0f be       	out	0x3f, r0	; 63
     bbc:	cd bf       	out	0x3d, r28	; 61
     bbe:	df 91       	pop	r29
     bc0:	cf 91       	pop	r28
     bc2:	1f 91       	pop	r17
     bc4:	ff 90       	pop	r15
     bc6:	ef 90       	pop	r14
     bc8:	08 95       	ret

00000bca <send_ack>:
void send_ack(uint8_t cmd) {
	// Îňďđŕâë˙ĺě ACK ń óęŕçŕíčĺě ęîěŕíäű, äë˙ ęîňîđîé ďîäňâĺđćäĺíčĺ
	send_command(ACK, cmd, 0x00);
     bca:	40 e0       	ldi	r20, 0x00	; 0
     bcc:	68 2f       	mov	r22, r24
     bce:	80 e4       	ldi	r24, 0x40	; 64
     bd0:	0e 94 76 05 	call	0xaec	; 0xaec <send_command>
     bd4:	08 95       	ret

00000bd6 <__divmodhi4>:
     bd6:	97 fb       	bst	r25, 7
     bd8:	07 2e       	mov	r0, r23
     bda:	16 f4       	brtc	.+4      	; 0xbe0 <__divmodhi4+0xa>
     bdc:	00 94       	com	r0
     bde:	07 d0       	rcall	.+14     	; 0xbee <__divmodhi4_neg1>
     be0:	77 fd       	sbrc	r23, 7
     be2:	09 d0       	rcall	.+18     	; 0xbf6 <__divmodhi4_neg2>
     be4:	0e 94 ff 05 	call	0xbfe	; 0xbfe <__udivmodhi4>
     be8:	07 fc       	sbrc	r0, 7
     bea:	05 d0       	rcall	.+10     	; 0xbf6 <__divmodhi4_neg2>
     bec:	3e f4       	brtc	.+14     	; 0xbfc <__divmodhi4_exit>

00000bee <__divmodhi4_neg1>:
     bee:	90 95       	com	r25
     bf0:	81 95       	neg	r24
     bf2:	9f 4f       	sbci	r25, 0xFF	; 255
     bf4:	08 95       	ret

00000bf6 <__divmodhi4_neg2>:
     bf6:	70 95       	com	r23
     bf8:	61 95       	neg	r22
     bfa:	7f 4f       	sbci	r23, 0xFF	; 255

00000bfc <__divmodhi4_exit>:
     bfc:	08 95       	ret

00000bfe <__udivmodhi4>:
     bfe:	aa 1b       	sub	r26, r26
     c00:	bb 1b       	sub	r27, r27
     c02:	51 e1       	ldi	r21, 0x11	; 17
     c04:	07 c0       	rjmp	.+14     	; 0xc14 <__udivmodhi4_ep>

00000c06 <__udivmodhi4_loop>:
     c06:	aa 1f       	adc	r26, r26
     c08:	bb 1f       	adc	r27, r27
     c0a:	a6 17       	cp	r26, r22
     c0c:	b7 07       	cpc	r27, r23
     c0e:	10 f0       	brcs	.+4      	; 0xc14 <__udivmodhi4_ep>
     c10:	a6 1b       	sub	r26, r22
     c12:	b7 0b       	sbc	r27, r23

00000c14 <__udivmodhi4_ep>:
     c14:	88 1f       	adc	r24, r24
     c16:	99 1f       	adc	r25, r25
     c18:	5a 95       	dec	r21
     c1a:	a9 f7       	brne	.-22     	; 0xc06 <__udivmodhi4_loop>
     c1c:	80 95       	com	r24
     c1e:	90 95       	com	r25
     c20:	bc 01       	movw	r22, r24
     c22:	cd 01       	movw	r24, r26
     c24:	08 95       	ret

00000c26 <memset>:
     c26:	dc 01       	movw	r26, r24
     c28:	01 c0       	rjmp	.+2      	; 0xc2c <memset+0x6>
     c2a:	6d 93       	st	X+, r22
     c2c:	41 50       	subi	r20, 0x01	; 1
     c2e:	50 40       	sbci	r21, 0x00	; 0
     c30:	e0 f7       	brcc	.-8      	; 0xc2a <memset+0x4>
     c32:	08 95       	ret

00000c34 <snprintf>:
     c34:	ae e0       	ldi	r26, 0x0E	; 14
     c36:	b0 e0       	ldi	r27, 0x00	; 0
     c38:	e0 e2       	ldi	r30, 0x20	; 32
     c3a:	f6 e0       	ldi	r31, 0x06	; 6
     c3c:	0c 94 e9 08 	jmp	0x11d2	; 0x11d2 <__prologue_saves__+0x1c>
     c40:	0d 89       	ldd	r16, Y+21	; 0x15
     c42:	1e 89       	ldd	r17, Y+22	; 0x16
     c44:	8f 89       	ldd	r24, Y+23	; 0x17
     c46:	98 8d       	ldd	r25, Y+24	; 0x18
     c48:	26 e0       	ldi	r18, 0x06	; 6
     c4a:	2c 83       	std	Y+4, r18	; 0x04
     c4c:	1a 83       	std	Y+2, r17	; 0x02
     c4e:	09 83       	std	Y+1, r16	; 0x01
     c50:	97 ff       	sbrs	r25, 7
     c52:	02 c0       	rjmp	.+4      	; 0xc58 <snprintf+0x24>
     c54:	80 e0       	ldi	r24, 0x00	; 0
     c56:	90 e8       	ldi	r25, 0x80	; 128
     c58:	01 97       	sbiw	r24, 0x01	; 1
     c5a:	9e 83       	std	Y+6, r25	; 0x06
     c5c:	8d 83       	std	Y+5, r24	; 0x05
     c5e:	ae 01       	movw	r20, r28
     c60:	45 5e       	subi	r20, 0xE5	; 229
     c62:	5f 4f       	sbci	r21, 0xFF	; 255
     c64:	69 8d       	ldd	r22, Y+25	; 0x19
     c66:	7a 8d       	ldd	r23, Y+26	; 0x1a
     c68:	ce 01       	movw	r24, r28
     c6a:	01 96       	adiw	r24, 0x01	; 1
     c6c:	0e 94 4a 06 	call	0xc94	; 0xc94 <vfprintf>
     c70:	4d 81       	ldd	r20, Y+5	; 0x05
     c72:	5e 81       	ldd	r21, Y+6	; 0x06
     c74:	57 fd       	sbrc	r21, 7
     c76:	0a c0       	rjmp	.+20     	; 0xc8c <snprintf+0x58>
     c78:	2f 81       	ldd	r18, Y+7	; 0x07
     c7a:	38 85       	ldd	r19, Y+8	; 0x08
     c7c:	42 17       	cp	r20, r18
     c7e:	53 07       	cpc	r21, r19
     c80:	0c f4       	brge	.+2      	; 0xc84 <snprintf+0x50>
     c82:	9a 01       	movw	r18, r20
     c84:	f8 01       	movw	r30, r16
     c86:	e2 0f       	add	r30, r18
     c88:	f3 1f       	adc	r31, r19
     c8a:	10 82       	st	Z, r1
     c8c:	2e 96       	adiw	r28, 0x0e	; 14
     c8e:	e4 e0       	ldi	r30, 0x04	; 4
     c90:	0c 94 05 09 	jmp	0x120a	; 0x120a <__epilogue_restores__+0x1c>

00000c94 <vfprintf>:
     c94:	ab e0       	ldi	r26, 0x0B	; 11
     c96:	b0 e0       	ldi	r27, 0x00	; 0
     c98:	e0 e5       	ldi	r30, 0x50	; 80
     c9a:	f6 e0       	ldi	r31, 0x06	; 6
     c9c:	0c 94 db 08 	jmp	0x11b6	; 0x11b6 <__prologue_saves__>
     ca0:	6c 01       	movw	r12, r24
     ca2:	7b 01       	movw	r14, r22
     ca4:	8a 01       	movw	r16, r20
     ca6:	fc 01       	movw	r30, r24
     ca8:	17 82       	std	Z+7, r1	; 0x07
     caa:	16 82       	std	Z+6, r1	; 0x06
     cac:	83 81       	ldd	r24, Z+3	; 0x03
     cae:	81 ff       	sbrs	r24, 1
     cb0:	cc c1       	rjmp	.+920    	; 0x104a <vfprintf+0x3b6>
     cb2:	ce 01       	movw	r24, r28
     cb4:	01 96       	adiw	r24, 0x01	; 1
     cb6:	3c 01       	movw	r6, r24
     cb8:	f6 01       	movw	r30, r12
     cba:	93 81       	ldd	r25, Z+3	; 0x03
     cbc:	f7 01       	movw	r30, r14
     cbe:	93 fd       	sbrc	r25, 3
     cc0:	85 91       	lpm	r24, Z+
     cc2:	93 ff       	sbrs	r25, 3
     cc4:	81 91       	ld	r24, Z+
     cc6:	7f 01       	movw	r14, r30
     cc8:	88 23       	and	r24, r24
     cca:	09 f4       	brne	.+2      	; 0xcce <vfprintf+0x3a>
     ccc:	ba c1       	rjmp	.+884    	; 0x1042 <vfprintf+0x3ae>
     cce:	85 32       	cpi	r24, 0x25	; 37
     cd0:	39 f4       	brne	.+14     	; 0xce0 <vfprintf+0x4c>
     cd2:	93 fd       	sbrc	r25, 3
     cd4:	85 91       	lpm	r24, Z+
     cd6:	93 ff       	sbrs	r25, 3
     cd8:	81 91       	ld	r24, Z+
     cda:	7f 01       	movw	r14, r30
     cdc:	85 32       	cpi	r24, 0x25	; 37
     cde:	29 f4       	brne	.+10     	; 0xcea <vfprintf+0x56>
     ce0:	b6 01       	movw	r22, r12
     ce2:	90 e0       	ldi	r25, 0x00	; 0
     ce4:	0e 94 41 08 	call	0x1082	; 0x1082 <fputc>
     ce8:	e7 cf       	rjmp	.-50     	; 0xcb8 <vfprintf+0x24>
     cea:	91 2c       	mov	r9, r1
     cec:	21 2c       	mov	r2, r1
     cee:	31 2c       	mov	r3, r1
     cf0:	ff e1       	ldi	r31, 0x1F	; 31
     cf2:	f3 15       	cp	r31, r3
     cf4:	d8 f0       	brcs	.+54     	; 0xd2c <vfprintf+0x98>
     cf6:	8b 32       	cpi	r24, 0x2B	; 43
     cf8:	79 f0       	breq	.+30     	; 0xd18 <vfprintf+0x84>
     cfa:	38 f4       	brcc	.+14     	; 0xd0a <vfprintf+0x76>
     cfc:	80 32       	cpi	r24, 0x20	; 32
     cfe:	79 f0       	breq	.+30     	; 0xd1e <vfprintf+0x8a>
     d00:	83 32       	cpi	r24, 0x23	; 35
     d02:	a1 f4       	brne	.+40     	; 0xd2c <vfprintf+0x98>
     d04:	23 2d       	mov	r18, r3
     d06:	20 61       	ori	r18, 0x10	; 16
     d08:	1d c0       	rjmp	.+58     	; 0xd44 <vfprintf+0xb0>
     d0a:	8d 32       	cpi	r24, 0x2D	; 45
     d0c:	61 f0       	breq	.+24     	; 0xd26 <vfprintf+0x92>
     d0e:	80 33       	cpi	r24, 0x30	; 48
     d10:	69 f4       	brne	.+26     	; 0xd2c <vfprintf+0x98>
     d12:	23 2d       	mov	r18, r3
     d14:	21 60       	ori	r18, 0x01	; 1
     d16:	16 c0       	rjmp	.+44     	; 0xd44 <vfprintf+0xb0>
     d18:	83 2d       	mov	r24, r3
     d1a:	82 60       	ori	r24, 0x02	; 2
     d1c:	38 2e       	mov	r3, r24
     d1e:	e3 2d       	mov	r30, r3
     d20:	e4 60       	ori	r30, 0x04	; 4
     d22:	3e 2e       	mov	r3, r30
     d24:	2a c0       	rjmp	.+84     	; 0xd7a <vfprintf+0xe6>
     d26:	f3 2d       	mov	r31, r3
     d28:	f8 60       	ori	r31, 0x08	; 8
     d2a:	1d c0       	rjmp	.+58     	; 0xd66 <vfprintf+0xd2>
     d2c:	37 fc       	sbrc	r3, 7
     d2e:	2d c0       	rjmp	.+90     	; 0xd8a <vfprintf+0xf6>
     d30:	20 ed       	ldi	r18, 0xD0	; 208
     d32:	28 0f       	add	r18, r24
     d34:	2a 30       	cpi	r18, 0x0A	; 10
     d36:	40 f0       	brcs	.+16     	; 0xd48 <vfprintf+0xb4>
     d38:	8e 32       	cpi	r24, 0x2E	; 46
     d3a:	b9 f4       	brne	.+46     	; 0xd6a <vfprintf+0xd6>
     d3c:	36 fc       	sbrc	r3, 6
     d3e:	81 c1       	rjmp	.+770    	; 0x1042 <vfprintf+0x3ae>
     d40:	23 2d       	mov	r18, r3
     d42:	20 64       	ori	r18, 0x40	; 64
     d44:	32 2e       	mov	r3, r18
     d46:	19 c0       	rjmp	.+50     	; 0xd7a <vfprintf+0xe6>
     d48:	36 fe       	sbrs	r3, 6
     d4a:	06 c0       	rjmp	.+12     	; 0xd58 <vfprintf+0xc4>
     d4c:	8a e0       	ldi	r24, 0x0A	; 10
     d4e:	98 9e       	mul	r9, r24
     d50:	20 0d       	add	r18, r0
     d52:	11 24       	eor	r1, r1
     d54:	92 2e       	mov	r9, r18
     d56:	11 c0       	rjmp	.+34     	; 0xd7a <vfprintf+0xe6>
     d58:	ea e0       	ldi	r30, 0x0A	; 10
     d5a:	2e 9e       	mul	r2, r30
     d5c:	20 0d       	add	r18, r0
     d5e:	11 24       	eor	r1, r1
     d60:	22 2e       	mov	r2, r18
     d62:	f3 2d       	mov	r31, r3
     d64:	f0 62       	ori	r31, 0x20	; 32
     d66:	3f 2e       	mov	r3, r31
     d68:	08 c0       	rjmp	.+16     	; 0xd7a <vfprintf+0xe6>
     d6a:	8c 36       	cpi	r24, 0x6C	; 108
     d6c:	21 f4       	brne	.+8      	; 0xd76 <vfprintf+0xe2>
     d6e:	83 2d       	mov	r24, r3
     d70:	80 68       	ori	r24, 0x80	; 128
     d72:	38 2e       	mov	r3, r24
     d74:	02 c0       	rjmp	.+4      	; 0xd7a <vfprintf+0xe6>
     d76:	88 36       	cpi	r24, 0x68	; 104
     d78:	41 f4       	brne	.+16     	; 0xd8a <vfprintf+0xf6>
     d7a:	f7 01       	movw	r30, r14
     d7c:	93 fd       	sbrc	r25, 3
     d7e:	85 91       	lpm	r24, Z+
     d80:	93 ff       	sbrs	r25, 3
     d82:	81 91       	ld	r24, Z+
     d84:	7f 01       	movw	r14, r30
     d86:	81 11       	cpse	r24, r1
     d88:	b3 cf       	rjmp	.-154    	; 0xcf0 <vfprintf+0x5c>
     d8a:	98 2f       	mov	r25, r24
     d8c:	9f 7d       	andi	r25, 0xDF	; 223
     d8e:	95 54       	subi	r25, 0x45	; 69
     d90:	93 30       	cpi	r25, 0x03	; 3
     d92:	28 f4       	brcc	.+10     	; 0xd9e <vfprintf+0x10a>
     d94:	0c 5f       	subi	r16, 0xFC	; 252
     d96:	1f 4f       	sbci	r17, 0xFF	; 255
     d98:	9f e3       	ldi	r25, 0x3F	; 63
     d9a:	99 83       	std	Y+1, r25	; 0x01
     d9c:	0d c0       	rjmp	.+26     	; 0xdb8 <vfprintf+0x124>
     d9e:	83 36       	cpi	r24, 0x63	; 99
     da0:	31 f0       	breq	.+12     	; 0xdae <vfprintf+0x11a>
     da2:	83 37       	cpi	r24, 0x73	; 115
     da4:	71 f0       	breq	.+28     	; 0xdc2 <vfprintf+0x12e>
     da6:	83 35       	cpi	r24, 0x53	; 83
     da8:	09 f0       	breq	.+2      	; 0xdac <vfprintf+0x118>
     daa:	59 c0       	rjmp	.+178    	; 0xe5e <vfprintf+0x1ca>
     dac:	21 c0       	rjmp	.+66     	; 0xdf0 <vfprintf+0x15c>
     dae:	f8 01       	movw	r30, r16
     db0:	80 81       	ld	r24, Z
     db2:	89 83       	std	Y+1, r24	; 0x01
     db4:	0e 5f       	subi	r16, 0xFE	; 254
     db6:	1f 4f       	sbci	r17, 0xFF	; 255
     db8:	88 24       	eor	r8, r8
     dba:	83 94       	inc	r8
     dbc:	91 2c       	mov	r9, r1
     dbe:	53 01       	movw	r10, r6
     dc0:	13 c0       	rjmp	.+38     	; 0xde8 <vfprintf+0x154>
     dc2:	28 01       	movw	r4, r16
     dc4:	f2 e0       	ldi	r31, 0x02	; 2
     dc6:	4f 0e       	add	r4, r31
     dc8:	51 1c       	adc	r5, r1
     dca:	f8 01       	movw	r30, r16
     dcc:	a0 80       	ld	r10, Z
     dce:	b1 80       	ldd	r11, Z+1	; 0x01
     dd0:	36 fe       	sbrs	r3, 6
     dd2:	03 c0       	rjmp	.+6      	; 0xdda <vfprintf+0x146>
     dd4:	69 2d       	mov	r22, r9
     dd6:	70 e0       	ldi	r23, 0x00	; 0
     dd8:	02 c0       	rjmp	.+4      	; 0xdde <vfprintf+0x14a>
     dda:	6f ef       	ldi	r22, 0xFF	; 255
     ddc:	7f ef       	ldi	r23, 0xFF	; 255
     dde:	c5 01       	movw	r24, r10
     de0:	0e 94 36 08 	call	0x106c	; 0x106c <strnlen>
     de4:	4c 01       	movw	r8, r24
     de6:	82 01       	movw	r16, r4
     de8:	f3 2d       	mov	r31, r3
     dea:	ff 77       	andi	r31, 0x7F	; 127
     dec:	3f 2e       	mov	r3, r31
     dee:	16 c0       	rjmp	.+44     	; 0xe1c <vfprintf+0x188>
     df0:	28 01       	movw	r4, r16
     df2:	22 e0       	ldi	r18, 0x02	; 2
     df4:	42 0e       	add	r4, r18
     df6:	51 1c       	adc	r5, r1
     df8:	f8 01       	movw	r30, r16
     dfa:	a0 80       	ld	r10, Z
     dfc:	b1 80       	ldd	r11, Z+1	; 0x01
     dfe:	36 fe       	sbrs	r3, 6
     e00:	03 c0       	rjmp	.+6      	; 0xe08 <vfprintf+0x174>
     e02:	69 2d       	mov	r22, r9
     e04:	70 e0       	ldi	r23, 0x00	; 0
     e06:	02 c0       	rjmp	.+4      	; 0xe0c <vfprintf+0x178>
     e08:	6f ef       	ldi	r22, 0xFF	; 255
     e0a:	7f ef       	ldi	r23, 0xFF	; 255
     e0c:	c5 01       	movw	r24, r10
     e0e:	0e 94 2b 08 	call	0x1056	; 0x1056 <strnlen_P>
     e12:	4c 01       	movw	r8, r24
     e14:	f3 2d       	mov	r31, r3
     e16:	f0 68       	ori	r31, 0x80	; 128
     e18:	3f 2e       	mov	r3, r31
     e1a:	82 01       	movw	r16, r4
     e1c:	33 fc       	sbrc	r3, 3
     e1e:	1b c0       	rjmp	.+54     	; 0xe56 <vfprintf+0x1c2>
     e20:	82 2d       	mov	r24, r2
     e22:	90 e0       	ldi	r25, 0x00	; 0
     e24:	88 16       	cp	r8, r24
     e26:	99 06       	cpc	r9, r25
     e28:	b0 f4       	brcc	.+44     	; 0xe56 <vfprintf+0x1c2>
     e2a:	b6 01       	movw	r22, r12
     e2c:	80 e2       	ldi	r24, 0x20	; 32
     e2e:	90 e0       	ldi	r25, 0x00	; 0
     e30:	0e 94 41 08 	call	0x1082	; 0x1082 <fputc>
     e34:	2a 94       	dec	r2
     e36:	f4 cf       	rjmp	.-24     	; 0xe20 <vfprintf+0x18c>
     e38:	f5 01       	movw	r30, r10
     e3a:	37 fc       	sbrc	r3, 7
     e3c:	85 91       	lpm	r24, Z+
     e3e:	37 fe       	sbrs	r3, 7
     e40:	81 91       	ld	r24, Z+
     e42:	5f 01       	movw	r10, r30
     e44:	b6 01       	movw	r22, r12
     e46:	90 e0       	ldi	r25, 0x00	; 0
     e48:	0e 94 41 08 	call	0x1082	; 0x1082 <fputc>
     e4c:	21 10       	cpse	r2, r1
     e4e:	2a 94       	dec	r2
     e50:	21 e0       	ldi	r18, 0x01	; 1
     e52:	82 1a       	sub	r8, r18
     e54:	91 08       	sbc	r9, r1
     e56:	81 14       	cp	r8, r1
     e58:	91 04       	cpc	r9, r1
     e5a:	71 f7       	brne	.-36     	; 0xe38 <vfprintf+0x1a4>
     e5c:	e8 c0       	rjmp	.+464    	; 0x102e <vfprintf+0x39a>
     e5e:	84 36       	cpi	r24, 0x64	; 100
     e60:	11 f0       	breq	.+4      	; 0xe66 <vfprintf+0x1d2>
     e62:	89 36       	cpi	r24, 0x69	; 105
     e64:	41 f5       	brne	.+80     	; 0xeb6 <vfprintf+0x222>
     e66:	f8 01       	movw	r30, r16
     e68:	37 fe       	sbrs	r3, 7
     e6a:	07 c0       	rjmp	.+14     	; 0xe7a <vfprintf+0x1e6>
     e6c:	60 81       	ld	r22, Z
     e6e:	71 81       	ldd	r23, Z+1	; 0x01
     e70:	82 81       	ldd	r24, Z+2	; 0x02
     e72:	93 81       	ldd	r25, Z+3	; 0x03
     e74:	0c 5f       	subi	r16, 0xFC	; 252
     e76:	1f 4f       	sbci	r17, 0xFF	; 255
     e78:	08 c0       	rjmp	.+16     	; 0xe8a <vfprintf+0x1f6>
     e7a:	60 81       	ld	r22, Z
     e7c:	71 81       	ldd	r23, Z+1	; 0x01
     e7e:	07 2e       	mov	r0, r23
     e80:	00 0c       	add	r0, r0
     e82:	88 0b       	sbc	r24, r24
     e84:	99 0b       	sbc	r25, r25
     e86:	0e 5f       	subi	r16, 0xFE	; 254
     e88:	1f 4f       	sbci	r17, 0xFF	; 255
     e8a:	f3 2d       	mov	r31, r3
     e8c:	ff 76       	andi	r31, 0x6F	; 111
     e8e:	3f 2e       	mov	r3, r31
     e90:	97 ff       	sbrs	r25, 7
     e92:	09 c0       	rjmp	.+18     	; 0xea6 <vfprintf+0x212>
     e94:	90 95       	com	r25
     e96:	80 95       	com	r24
     e98:	70 95       	com	r23
     e9a:	61 95       	neg	r22
     e9c:	7f 4f       	sbci	r23, 0xFF	; 255
     e9e:	8f 4f       	sbci	r24, 0xFF	; 255
     ea0:	9f 4f       	sbci	r25, 0xFF	; 255
     ea2:	f0 68       	ori	r31, 0x80	; 128
     ea4:	3f 2e       	mov	r3, r31
     ea6:	2a e0       	ldi	r18, 0x0A	; 10
     ea8:	30 e0       	ldi	r19, 0x00	; 0
     eaa:	a3 01       	movw	r20, r6
     eac:	0e 94 7d 08 	call	0x10fa	; 0x10fa <__ultoa_invert>
     eb0:	88 2e       	mov	r8, r24
     eb2:	86 18       	sub	r8, r6
     eb4:	45 c0       	rjmp	.+138    	; 0xf40 <vfprintf+0x2ac>
     eb6:	85 37       	cpi	r24, 0x75	; 117
     eb8:	31 f4       	brne	.+12     	; 0xec6 <vfprintf+0x232>
     eba:	23 2d       	mov	r18, r3
     ebc:	2f 7e       	andi	r18, 0xEF	; 239
     ebe:	b2 2e       	mov	r11, r18
     ec0:	2a e0       	ldi	r18, 0x0A	; 10
     ec2:	30 e0       	ldi	r19, 0x00	; 0
     ec4:	25 c0       	rjmp	.+74     	; 0xf10 <vfprintf+0x27c>
     ec6:	93 2d       	mov	r25, r3
     ec8:	99 7f       	andi	r25, 0xF9	; 249
     eca:	b9 2e       	mov	r11, r25
     ecc:	8f 36       	cpi	r24, 0x6F	; 111
     ece:	c1 f0       	breq	.+48     	; 0xf00 <vfprintf+0x26c>
     ed0:	18 f4       	brcc	.+6      	; 0xed8 <vfprintf+0x244>
     ed2:	88 35       	cpi	r24, 0x58	; 88
     ed4:	79 f0       	breq	.+30     	; 0xef4 <vfprintf+0x260>
     ed6:	b5 c0       	rjmp	.+362    	; 0x1042 <vfprintf+0x3ae>
     ed8:	80 37       	cpi	r24, 0x70	; 112
     eda:	19 f0       	breq	.+6      	; 0xee2 <vfprintf+0x24e>
     edc:	88 37       	cpi	r24, 0x78	; 120
     ede:	21 f0       	breq	.+8      	; 0xee8 <vfprintf+0x254>
     ee0:	b0 c0       	rjmp	.+352    	; 0x1042 <vfprintf+0x3ae>
     ee2:	e9 2f       	mov	r30, r25
     ee4:	e0 61       	ori	r30, 0x10	; 16
     ee6:	be 2e       	mov	r11, r30
     ee8:	b4 fe       	sbrs	r11, 4
     eea:	0d c0       	rjmp	.+26     	; 0xf06 <vfprintf+0x272>
     eec:	fb 2d       	mov	r31, r11
     eee:	f4 60       	ori	r31, 0x04	; 4
     ef0:	bf 2e       	mov	r11, r31
     ef2:	09 c0       	rjmp	.+18     	; 0xf06 <vfprintf+0x272>
     ef4:	34 fe       	sbrs	r3, 4
     ef6:	0a c0       	rjmp	.+20     	; 0xf0c <vfprintf+0x278>
     ef8:	29 2f       	mov	r18, r25
     efa:	26 60       	ori	r18, 0x06	; 6
     efc:	b2 2e       	mov	r11, r18
     efe:	06 c0       	rjmp	.+12     	; 0xf0c <vfprintf+0x278>
     f00:	28 e0       	ldi	r18, 0x08	; 8
     f02:	30 e0       	ldi	r19, 0x00	; 0
     f04:	05 c0       	rjmp	.+10     	; 0xf10 <vfprintf+0x27c>
     f06:	20 e1       	ldi	r18, 0x10	; 16
     f08:	30 e0       	ldi	r19, 0x00	; 0
     f0a:	02 c0       	rjmp	.+4      	; 0xf10 <vfprintf+0x27c>
     f0c:	20 e1       	ldi	r18, 0x10	; 16
     f0e:	32 e0       	ldi	r19, 0x02	; 2
     f10:	f8 01       	movw	r30, r16
     f12:	b7 fe       	sbrs	r11, 7
     f14:	07 c0       	rjmp	.+14     	; 0xf24 <vfprintf+0x290>
     f16:	60 81       	ld	r22, Z
     f18:	71 81       	ldd	r23, Z+1	; 0x01
     f1a:	82 81       	ldd	r24, Z+2	; 0x02
     f1c:	93 81       	ldd	r25, Z+3	; 0x03
     f1e:	0c 5f       	subi	r16, 0xFC	; 252
     f20:	1f 4f       	sbci	r17, 0xFF	; 255
     f22:	06 c0       	rjmp	.+12     	; 0xf30 <vfprintf+0x29c>
     f24:	60 81       	ld	r22, Z
     f26:	71 81       	ldd	r23, Z+1	; 0x01
     f28:	80 e0       	ldi	r24, 0x00	; 0
     f2a:	90 e0       	ldi	r25, 0x00	; 0
     f2c:	0e 5f       	subi	r16, 0xFE	; 254
     f2e:	1f 4f       	sbci	r17, 0xFF	; 255
     f30:	a3 01       	movw	r20, r6
     f32:	0e 94 7d 08 	call	0x10fa	; 0x10fa <__ultoa_invert>
     f36:	88 2e       	mov	r8, r24
     f38:	86 18       	sub	r8, r6
     f3a:	fb 2d       	mov	r31, r11
     f3c:	ff 77       	andi	r31, 0x7F	; 127
     f3e:	3f 2e       	mov	r3, r31
     f40:	36 fe       	sbrs	r3, 6
     f42:	0d c0       	rjmp	.+26     	; 0xf5e <vfprintf+0x2ca>
     f44:	23 2d       	mov	r18, r3
     f46:	2e 7f       	andi	r18, 0xFE	; 254
     f48:	a2 2e       	mov	r10, r18
     f4a:	89 14       	cp	r8, r9
     f4c:	58 f4       	brcc	.+22     	; 0xf64 <vfprintf+0x2d0>
     f4e:	34 fe       	sbrs	r3, 4
     f50:	0b c0       	rjmp	.+22     	; 0xf68 <vfprintf+0x2d4>
     f52:	32 fc       	sbrc	r3, 2
     f54:	09 c0       	rjmp	.+18     	; 0xf68 <vfprintf+0x2d4>
     f56:	83 2d       	mov	r24, r3
     f58:	8e 7e       	andi	r24, 0xEE	; 238
     f5a:	a8 2e       	mov	r10, r24
     f5c:	05 c0       	rjmp	.+10     	; 0xf68 <vfprintf+0x2d4>
     f5e:	b8 2c       	mov	r11, r8
     f60:	a3 2c       	mov	r10, r3
     f62:	03 c0       	rjmp	.+6      	; 0xf6a <vfprintf+0x2d6>
     f64:	b8 2c       	mov	r11, r8
     f66:	01 c0       	rjmp	.+2      	; 0xf6a <vfprintf+0x2d6>
     f68:	b9 2c       	mov	r11, r9
     f6a:	a4 fe       	sbrs	r10, 4
     f6c:	0f c0       	rjmp	.+30     	; 0xf8c <vfprintf+0x2f8>
     f6e:	fe 01       	movw	r30, r28
     f70:	e8 0d       	add	r30, r8
     f72:	f1 1d       	adc	r31, r1
     f74:	80 81       	ld	r24, Z
     f76:	80 33       	cpi	r24, 0x30	; 48
     f78:	21 f4       	brne	.+8      	; 0xf82 <vfprintf+0x2ee>
     f7a:	9a 2d       	mov	r25, r10
     f7c:	99 7e       	andi	r25, 0xE9	; 233
     f7e:	a9 2e       	mov	r10, r25
     f80:	09 c0       	rjmp	.+18     	; 0xf94 <vfprintf+0x300>
     f82:	a2 fe       	sbrs	r10, 2
     f84:	06 c0       	rjmp	.+12     	; 0xf92 <vfprintf+0x2fe>
     f86:	b3 94       	inc	r11
     f88:	b3 94       	inc	r11
     f8a:	04 c0       	rjmp	.+8      	; 0xf94 <vfprintf+0x300>
     f8c:	8a 2d       	mov	r24, r10
     f8e:	86 78       	andi	r24, 0x86	; 134
     f90:	09 f0       	breq	.+2      	; 0xf94 <vfprintf+0x300>
     f92:	b3 94       	inc	r11
     f94:	a3 fc       	sbrc	r10, 3
     f96:	11 c0       	rjmp	.+34     	; 0xfba <vfprintf+0x326>
     f98:	a0 fe       	sbrs	r10, 0
     f9a:	06 c0       	rjmp	.+12     	; 0xfa8 <vfprintf+0x314>
     f9c:	b2 14       	cp	r11, r2
     f9e:	88 f4       	brcc	.+34     	; 0xfc2 <vfprintf+0x32e>
     fa0:	28 0c       	add	r2, r8
     fa2:	92 2c       	mov	r9, r2
     fa4:	9b 18       	sub	r9, r11
     fa6:	0e c0       	rjmp	.+28     	; 0xfc4 <vfprintf+0x330>
     fa8:	b2 14       	cp	r11, r2
     faa:	60 f4       	brcc	.+24     	; 0xfc4 <vfprintf+0x330>
     fac:	b6 01       	movw	r22, r12
     fae:	80 e2       	ldi	r24, 0x20	; 32
     fb0:	90 e0       	ldi	r25, 0x00	; 0
     fb2:	0e 94 41 08 	call	0x1082	; 0x1082 <fputc>
     fb6:	b3 94       	inc	r11
     fb8:	f7 cf       	rjmp	.-18     	; 0xfa8 <vfprintf+0x314>
     fba:	b2 14       	cp	r11, r2
     fbc:	18 f4       	brcc	.+6      	; 0xfc4 <vfprintf+0x330>
     fbe:	2b 18       	sub	r2, r11
     fc0:	02 c0       	rjmp	.+4      	; 0xfc6 <vfprintf+0x332>
     fc2:	98 2c       	mov	r9, r8
     fc4:	21 2c       	mov	r2, r1
     fc6:	a4 fe       	sbrs	r10, 4
     fc8:	10 c0       	rjmp	.+32     	; 0xfea <vfprintf+0x356>
     fca:	b6 01       	movw	r22, r12
     fcc:	80 e3       	ldi	r24, 0x30	; 48
     fce:	90 e0       	ldi	r25, 0x00	; 0
     fd0:	0e 94 41 08 	call	0x1082	; 0x1082 <fputc>
     fd4:	a2 fe       	sbrs	r10, 2
     fd6:	17 c0       	rjmp	.+46     	; 0x1006 <vfprintf+0x372>
     fd8:	a1 fc       	sbrc	r10, 1
     fda:	03 c0       	rjmp	.+6      	; 0xfe2 <vfprintf+0x34e>
     fdc:	88 e7       	ldi	r24, 0x78	; 120
     fde:	90 e0       	ldi	r25, 0x00	; 0
     fe0:	02 c0       	rjmp	.+4      	; 0xfe6 <vfprintf+0x352>
     fe2:	88 e5       	ldi	r24, 0x58	; 88
     fe4:	90 e0       	ldi	r25, 0x00	; 0
     fe6:	b6 01       	movw	r22, r12
     fe8:	0c c0       	rjmp	.+24     	; 0x1002 <vfprintf+0x36e>
     fea:	8a 2d       	mov	r24, r10
     fec:	86 78       	andi	r24, 0x86	; 134
     fee:	59 f0       	breq	.+22     	; 0x1006 <vfprintf+0x372>
     ff0:	a1 fe       	sbrs	r10, 1
     ff2:	02 c0       	rjmp	.+4      	; 0xff8 <vfprintf+0x364>
     ff4:	8b e2       	ldi	r24, 0x2B	; 43
     ff6:	01 c0       	rjmp	.+2      	; 0xffa <vfprintf+0x366>
     ff8:	80 e2       	ldi	r24, 0x20	; 32
     ffa:	a7 fc       	sbrc	r10, 7
     ffc:	8d e2       	ldi	r24, 0x2D	; 45
     ffe:	b6 01       	movw	r22, r12
    1000:	90 e0       	ldi	r25, 0x00	; 0
    1002:	0e 94 41 08 	call	0x1082	; 0x1082 <fputc>
    1006:	89 14       	cp	r8, r9
    1008:	38 f4       	brcc	.+14     	; 0x1018 <vfprintf+0x384>
    100a:	b6 01       	movw	r22, r12
    100c:	80 e3       	ldi	r24, 0x30	; 48
    100e:	90 e0       	ldi	r25, 0x00	; 0
    1010:	0e 94 41 08 	call	0x1082	; 0x1082 <fputc>
    1014:	9a 94       	dec	r9
    1016:	f7 cf       	rjmp	.-18     	; 0x1006 <vfprintf+0x372>
    1018:	8a 94       	dec	r8
    101a:	f3 01       	movw	r30, r6
    101c:	e8 0d       	add	r30, r8
    101e:	f1 1d       	adc	r31, r1
    1020:	80 81       	ld	r24, Z
    1022:	b6 01       	movw	r22, r12
    1024:	90 e0       	ldi	r25, 0x00	; 0
    1026:	0e 94 41 08 	call	0x1082	; 0x1082 <fputc>
    102a:	81 10       	cpse	r8, r1
    102c:	f5 cf       	rjmp	.-22     	; 0x1018 <vfprintf+0x384>
    102e:	22 20       	and	r2, r2
    1030:	09 f4       	brne	.+2      	; 0x1034 <vfprintf+0x3a0>
    1032:	42 ce       	rjmp	.-892    	; 0xcb8 <vfprintf+0x24>
    1034:	b6 01       	movw	r22, r12
    1036:	80 e2       	ldi	r24, 0x20	; 32
    1038:	90 e0       	ldi	r25, 0x00	; 0
    103a:	0e 94 41 08 	call	0x1082	; 0x1082 <fputc>
    103e:	2a 94       	dec	r2
    1040:	f6 cf       	rjmp	.-20     	; 0x102e <vfprintf+0x39a>
    1042:	f6 01       	movw	r30, r12
    1044:	86 81       	ldd	r24, Z+6	; 0x06
    1046:	97 81       	ldd	r25, Z+7	; 0x07
    1048:	02 c0       	rjmp	.+4      	; 0x104e <vfprintf+0x3ba>
    104a:	8f ef       	ldi	r24, 0xFF	; 255
    104c:	9f ef       	ldi	r25, 0xFF	; 255
    104e:	2b 96       	adiw	r28, 0x0b	; 11
    1050:	e2 e1       	ldi	r30, 0x12	; 18
    1052:	0c 94 f7 08 	jmp	0x11ee	; 0x11ee <__epilogue_restores__>

00001056 <strnlen_P>:
    1056:	fc 01       	movw	r30, r24
    1058:	05 90       	lpm	r0, Z+
    105a:	61 50       	subi	r22, 0x01	; 1
    105c:	70 40       	sbci	r23, 0x00	; 0
    105e:	01 10       	cpse	r0, r1
    1060:	d8 f7       	brcc	.-10     	; 0x1058 <strnlen_P+0x2>
    1062:	80 95       	com	r24
    1064:	90 95       	com	r25
    1066:	8e 0f       	add	r24, r30
    1068:	9f 1f       	adc	r25, r31
    106a:	08 95       	ret

0000106c <strnlen>:
    106c:	fc 01       	movw	r30, r24
    106e:	61 50       	subi	r22, 0x01	; 1
    1070:	70 40       	sbci	r23, 0x00	; 0
    1072:	01 90       	ld	r0, Z+
    1074:	01 10       	cpse	r0, r1
    1076:	d8 f7       	brcc	.-10     	; 0x106e <strnlen+0x2>
    1078:	80 95       	com	r24
    107a:	90 95       	com	r25
    107c:	8e 0f       	add	r24, r30
    107e:	9f 1f       	adc	r25, r31
    1080:	08 95       	ret

00001082 <fputc>:
    1082:	0f 93       	push	r16
    1084:	1f 93       	push	r17
    1086:	cf 93       	push	r28
    1088:	df 93       	push	r29
    108a:	fb 01       	movw	r30, r22
    108c:	23 81       	ldd	r18, Z+3	; 0x03
    108e:	21 fd       	sbrc	r18, 1
    1090:	03 c0       	rjmp	.+6      	; 0x1098 <fputc+0x16>
    1092:	8f ef       	ldi	r24, 0xFF	; 255
    1094:	9f ef       	ldi	r25, 0xFF	; 255
    1096:	2c c0       	rjmp	.+88     	; 0x10f0 <fputc+0x6e>
    1098:	22 ff       	sbrs	r18, 2
    109a:	16 c0       	rjmp	.+44     	; 0x10c8 <fputc+0x46>
    109c:	46 81       	ldd	r20, Z+6	; 0x06
    109e:	57 81       	ldd	r21, Z+7	; 0x07
    10a0:	24 81       	ldd	r18, Z+4	; 0x04
    10a2:	35 81       	ldd	r19, Z+5	; 0x05
    10a4:	42 17       	cp	r20, r18
    10a6:	53 07       	cpc	r21, r19
    10a8:	44 f4       	brge	.+16     	; 0x10ba <fputc+0x38>
    10aa:	a0 81       	ld	r26, Z
    10ac:	b1 81       	ldd	r27, Z+1	; 0x01
    10ae:	9d 01       	movw	r18, r26
    10b0:	2f 5f       	subi	r18, 0xFF	; 255
    10b2:	3f 4f       	sbci	r19, 0xFF	; 255
    10b4:	31 83       	std	Z+1, r19	; 0x01
    10b6:	20 83       	st	Z, r18
    10b8:	8c 93       	st	X, r24
    10ba:	26 81       	ldd	r18, Z+6	; 0x06
    10bc:	37 81       	ldd	r19, Z+7	; 0x07
    10be:	2f 5f       	subi	r18, 0xFF	; 255
    10c0:	3f 4f       	sbci	r19, 0xFF	; 255
    10c2:	37 83       	std	Z+7, r19	; 0x07
    10c4:	26 83       	std	Z+6, r18	; 0x06
    10c6:	14 c0       	rjmp	.+40     	; 0x10f0 <fputc+0x6e>
    10c8:	8b 01       	movw	r16, r22
    10ca:	ec 01       	movw	r28, r24
    10cc:	fb 01       	movw	r30, r22
    10ce:	00 84       	ldd	r0, Z+8	; 0x08
    10d0:	f1 85       	ldd	r31, Z+9	; 0x09
    10d2:	e0 2d       	mov	r30, r0
    10d4:	09 95       	icall
    10d6:	89 2b       	or	r24, r25
    10d8:	e1 f6       	brne	.-72     	; 0x1092 <fputc+0x10>
    10da:	d8 01       	movw	r26, r16
    10dc:	16 96       	adiw	r26, 0x06	; 6
    10de:	8d 91       	ld	r24, X+
    10e0:	9c 91       	ld	r25, X
    10e2:	17 97       	sbiw	r26, 0x07	; 7
    10e4:	01 96       	adiw	r24, 0x01	; 1
    10e6:	17 96       	adiw	r26, 0x07	; 7
    10e8:	9c 93       	st	X, r25
    10ea:	8e 93       	st	-X, r24
    10ec:	16 97       	sbiw	r26, 0x06	; 6
    10ee:	ce 01       	movw	r24, r28
    10f0:	df 91       	pop	r29
    10f2:	cf 91       	pop	r28
    10f4:	1f 91       	pop	r17
    10f6:	0f 91       	pop	r16
    10f8:	08 95       	ret

000010fa <__ultoa_invert>:
    10fa:	fa 01       	movw	r30, r20
    10fc:	aa 27       	eor	r26, r26
    10fe:	28 30       	cpi	r18, 0x08	; 8
    1100:	51 f1       	breq	.+84     	; 0x1156 <__ultoa_invert+0x5c>
    1102:	20 31       	cpi	r18, 0x10	; 16
    1104:	81 f1       	breq	.+96     	; 0x1166 <__ultoa_invert+0x6c>
    1106:	e8 94       	clt
    1108:	6f 93       	push	r22
    110a:	6e 7f       	andi	r22, 0xFE	; 254
    110c:	6e 5f       	subi	r22, 0xFE	; 254
    110e:	7f 4f       	sbci	r23, 0xFF	; 255
    1110:	8f 4f       	sbci	r24, 0xFF	; 255
    1112:	9f 4f       	sbci	r25, 0xFF	; 255
    1114:	af 4f       	sbci	r26, 0xFF	; 255
    1116:	b1 e0       	ldi	r27, 0x01	; 1
    1118:	3e d0       	rcall	.+124    	; 0x1196 <__ultoa_invert+0x9c>
    111a:	b4 e0       	ldi	r27, 0x04	; 4
    111c:	3c d0       	rcall	.+120    	; 0x1196 <__ultoa_invert+0x9c>
    111e:	67 0f       	add	r22, r23
    1120:	78 1f       	adc	r23, r24
    1122:	89 1f       	adc	r24, r25
    1124:	9a 1f       	adc	r25, r26
    1126:	a1 1d       	adc	r26, r1
    1128:	68 0f       	add	r22, r24
    112a:	79 1f       	adc	r23, r25
    112c:	8a 1f       	adc	r24, r26
    112e:	91 1d       	adc	r25, r1
    1130:	a1 1d       	adc	r26, r1
    1132:	6a 0f       	add	r22, r26
    1134:	71 1d       	adc	r23, r1
    1136:	81 1d       	adc	r24, r1
    1138:	91 1d       	adc	r25, r1
    113a:	a1 1d       	adc	r26, r1
    113c:	20 d0       	rcall	.+64     	; 0x117e <__ultoa_invert+0x84>
    113e:	09 f4       	brne	.+2      	; 0x1142 <__ultoa_invert+0x48>
    1140:	68 94       	set
    1142:	3f 91       	pop	r19
    1144:	2a e0       	ldi	r18, 0x0A	; 10
    1146:	26 9f       	mul	r18, r22
    1148:	11 24       	eor	r1, r1
    114a:	30 19       	sub	r19, r0
    114c:	30 5d       	subi	r19, 0xD0	; 208
    114e:	31 93       	st	Z+, r19
    1150:	de f6       	brtc	.-74     	; 0x1108 <__ultoa_invert+0xe>
    1152:	cf 01       	movw	r24, r30
    1154:	08 95       	ret
    1156:	46 2f       	mov	r20, r22
    1158:	47 70       	andi	r20, 0x07	; 7
    115a:	40 5d       	subi	r20, 0xD0	; 208
    115c:	41 93       	st	Z+, r20
    115e:	b3 e0       	ldi	r27, 0x03	; 3
    1160:	0f d0       	rcall	.+30     	; 0x1180 <__ultoa_invert+0x86>
    1162:	c9 f7       	brne	.-14     	; 0x1156 <__ultoa_invert+0x5c>
    1164:	f6 cf       	rjmp	.-20     	; 0x1152 <__ultoa_invert+0x58>
    1166:	46 2f       	mov	r20, r22
    1168:	4f 70       	andi	r20, 0x0F	; 15
    116a:	40 5d       	subi	r20, 0xD0	; 208
    116c:	4a 33       	cpi	r20, 0x3A	; 58
    116e:	18 f0       	brcs	.+6      	; 0x1176 <__ultoa_invert+0x7c>
    1170:	49 5d       	subi	r20, 0xD9	; 217
    1172:	31 fd       	sbrc	r19, 1
    1174:	40 52       	subi	r20, 0x20	; 32
    1176:	41 93       	st	Z+, r20
    1178:	02 d0       	rcall	.+4      	; 0x117e <__ultoa_invert+0x84>
    117a:	a9 f7       	brne	.-22     	; 0x1166 <__ultoa_invert+0x6c>
    117c:	ea cf       	rjmp	.-44     	; 0x1152 <__ultoa_invert+0x58>
    117e:	b4 e0       	ldi	r27, 0x04	; 4
    1180:	a6 95       	lsr	r26
    1182:	97 95       	ror	r25
    1184:	87 95       	ror	r24
    1186:	77 95       	ror	r23
    1188:	67 95       	ror	r22
    118a:	ba 95       	dec	r27
    118c:	c9 f7       	brne	.-14     	; 0x1180 <__ultoa_invert+0x86>
    118e:	00 97       	sbiw	r24, 0x00	; 0
    1190:	61 05       	cpc	r22, r1
    1192:	71 05       	cpc	r23, r1
    1194:	08 95       	ret
    1196:	9b 01       	movw	r18, r22
    1198:	ac 01       	movw	r20, r24
    119a:	0a 2e       	mov	r0, r26
    119c:	06 94       	lsr	r0
    119e:	57 95       	ror	r21
    11a0:	47 95       	ror	r20
    11a2:	37 95       	ror	r19
    11a4:	27 95       	ror	r18
    11a6:	ba 95       	dec	r27
    11a8:	c9 f7       	brne	.-14     	; 0x119c <__ultoa_invert+0xa2>
    11aa:	62 0f       	add	r22, r18
    11ac:	73 1f       	adc	r23, r19
    11ae:	84 1f       	adc	r24, r20
    11b0:	95 1f       	adc	r25, r21
    11b2:	a0 1d       	adc	r26, r0
    11b4:	08 95       	ret

000011b6 <__prologue_saves__>:
    11b6:	2f 92       	push	r2
    11b8:	3f 92       	push	r3
    11ba:	4f 92       	push	r4
    11bc:	5f 92       	push	r5
    11be:	6f 92       	push	r6
    11c0:	7f 92       	push	r7
    11c2:	8f 92       	push	r8
    11c4:	9f 92       	push	r9
    11c6:	af 92       	push	r10
    11c8:	bf 92       	push	r11
    11ca:	cf 92       	push	r12
    11cc:	df 92       	push	r13
    11ce:	ef 92       	push	r14
    11d0:	ff 92       	push	r15
    11d2:	0f 93       	push	r16
    11d4:	1f 93       	push	r17
    11d6:	cf 93       	push	r28
    11d8:	df 93       	push	r29
    11da:	cd b7       	in	r28, 0x3d	; 61
    11dc:	de b7       	in	r29, 0x3e	; 62
    11de:	ca 1b       	sub	r28, r26
    11e0:	db 0b       	sbc	r29, r27
    11e2:	0f b6       	in	r0, 0x3f	; 63
    11e4:	f8 94       	cli
    11e6:	de bf       	out	0x3e, r29	; 62
    11e8:	0f be       	out	0x3f, r0	; 63
    11ea:	cd bf       	out	0x3d, r28	; 61
    11ec:	09 94       	ijmp

000011ee <__epilogue_restores__>:
    11ee:	2a 88       	ldd	r2, Y+18	; 0x12
    11f0:	39 88       	ldd	r3, Y+17	; 0x11
    11f2:	48 88       	ldd	r4, Y+16	; 0x10
    11f4:	5f 84       	ldd	r5, Y+15	; 0x0f
    11f6:	6e 84       	ldd	r6, Y+14	; 0x0e
    11f8:	7d 84       	ldd	r7, Y+13	; 0x0d
    11fa:	8c 84       	ldd	r8, Y+12	; 0x0c
    11fc:	9b 84       	ldd	r9, Y+11	; 0x0b
    11fe:	aa 84       	ldd	r10, Y+10	; 0x0a
    1200:	b9 84       	ldd	r11, Y+9	; 0x09
    1202:	c8 84       	ldd	r12, Y+8	; 0x08
    1204:	df 80       	ldd	r13, Y+7	; 0x07
    1206:	ee 80       	ldd	r14, Y+6	; 0x06
    1208:	fd 80       	ldd	r15, Y+5	; 0x05
    120a:	0c 81       	ldd	r16, Y+4	; 0x04
    120c:	1b 81       	ldd	r17, Y+3	; 0x03
    120e:	aa 81       	ldd	r26, Y+2	; 0x02
    1210:	b9 81       	ldd	r27, Y+1	; 0x01
    1212:	ce 0f       	add	r28, r30
    1214:	d1 1d       	adc	r29, r1
    1216:	0f b6       	in	r0, 0x3f	; 63
    1218:	f8 94       	cli
    121a:	de bf       	out	0x3e, r29	; 62
    121c:	0f be       	out	0x3f, r0	; 63
    121e:	cd bf       	out	0x3d, r28	; 61
    1220:	ed 01       	movw	r28, r26
    1222:	08 95       	ret

00001224 <_exit>:
    1224:	f8 94       	cli

00001226 <__stop_program>:
    1226:	ff cf       	rjmp	.-2      	; 0x1226 <__stop_program>
