
CafeTrainAtmega328.elf:     file format elf32-avr

Sections:
Idx Name          Size      VMA       LMA       File off  Algn
  0 .data         0000004e  00800100  00001182  00001216  2**0
                  CONTENTS, ALLOC, LOAD, DATA
  1 .text         00001182  00000000  00000000  00000094  2**1
                  CONTENTS, ALLOC, LOAD, READONLY, CODE
  2 .bss          00000016  0080014e  0080014e  00001264  2**0
                  ALLOC
  3 .comment      0000005c  00000000  00000000  00001264  2**0
                  CONTENTS, READONLY
  4 .note.gnu.avr.deviceinfo 00000040  00000000  00000000  000012c0  2**2
                  CONTENTS, READONLY
  5 .debug_aranges 00000258  00000000  00000000  00001300  2**0
                  CONTENTS, READONLY, DEBUGGING
  6 .debug_info   0000213b  00000000  00000000  00001558  2**0
                  CONTENTS, READONLY, DEBUGGING
  7 .debug_abbrev 000010b9  00000000  00000000  00003693  2**0
                  CONTENTS, READONLY, DEBUGGING
  8 .debug_line   0000131e  00000000  00000000  0000474c  2**0
                  CONTENTS, READONLY, DEBUGGING
  9 .debug_frame  00000540  00000000  00000000  00005a6c  2**2
                  CONTENTS, READONLY, DEBUGGING
 10 .debug_str    0000099b  00000000  00000000  00005fac  2**0
                  CONTENTS, READONLY, DEBUGGING
 11 .debug_loc    00000f87  00000000  00000000  00006947  2**0
                  CONTENTS, READONLY, DEBUGGING
 12 .debug_ranges 000001f8  00000000  00000000  000078ce  2**0
                  CONTENTS, READONLY, DEBUGGING

Disassembly of section .text:

00000000 <__vectors>:
       0:	0c 94 34 00 	jmp	0x68	; 0x68 <__ctors_end>
       4:	0c 94 51 00 	jmp	0xa2	; 0xa2 <__bad_interrupt>
       8:	0c 94 51 00 	jmp	0xa2	; 0xa2 <__bad_interrupt>
       c:	0c 94 51 00 	jmp	0xa2	; 0xa2 <__bad_interrupt>
      10:	0c 94 51 00 	jmp	0xa2	; 0xa2 <__bad_interrupt>
      14:	0c 94 51 00 	jmp	0xa2	; 0xa2 <__bad_interrupt>
      18:	0c 94 51 00 	jmp	0xa2	; 0xa2 <__bad_interrupt>
      1c:	0c 94 51 00 	jmp	0xa2	; 0xa2 <__bad_interrupt>
      20:	0c 94 51 00 	jmp	0xa2	; 0xa2 <__bad_interrupt>
      24:	0c 94 51 00 	jmp	0xa2	; 0xa2 <__bad_interrupt>
      28:	0c 94 51 00 	jmp	0xa2	; 0xa2 <__bad_interrupt>
      2c:	0c 94 51 00 	jmp	0xa2	; 0xa2 <__bad_interrupt>
      30:	0c 94 51 00 	jmp	0xa2	; 0xa2 <__bad_interrupt>
      34:	0c 94 51 00 	jmp	0xa2	; 0xa2 <__bad_interrupt>
      38:	0c 94 d0 04 	jmp	0x9a0	; 0x9a0 <__vector_14>
      3c:	0c 94 51 00 	jmp	0xa2	; 0xa2 <__bad_interrupt>
      40:	0c 94 51 00 	jmp	0xa2	; 0xa2 <__bad_interrupt>
      44:	0c 94 51 00 	jmp	0xa2	; 0xa2 <__bad_interrupt>
      48:	0c 94 51 00 	jmp	0xa2	; 0xa2 <__bad_interrupt>
      4c:	0c 94 51 00 	jmp	0xa2	; 0xa2 <__bad_interrupt>
      50:	0c 94 51 00 	jmp	0xa2	; 0xa2 <__bad_interrupt>
      54:	0c 94 51 00 	jmp	0xa2	; 0xa2 <__bad_interrupt>
      58:	0c 94 51 00 	jmp	0xa2	; 0xa2 <__bad_interrupt>
      5c:	0c 94 51 00 	jmp	0xa2	; 0xa2 <__bad_interrupt>
      60:	0c 94 51 00 	jmp	0xa2	; 0xa2 <__bad_interrupt>
      64:	0c 94 51 00 	jmp	0xa2	; 0xa2 <__bad_interrupt>

00000068 <__ctors_end>:
      68:	11 24       	eor	r1, r1
      6a:	1f be       	out	0x3f, r1	; 63
      6c:	cf ef       	ldi	r28, 0xFF	; 255
      6e:	d8 e0       	ldi	r29, 0x08	; 8
      70:	de bf       	out	0x3e, r29	; 62
      72:	cd bf       	out	0x3d, r28	; 61

00000074 <__do_copy_data>:
      74:	11 e0       	ldi	r17, 0x01	; 1
      76:	a0 e0       	ldi	r26, 0x00	; 0
      78:	b1 e0       	ldi	r27, 0x01	; 1
      7a:	e2 e8       	ldi	r30, 0x82	; 130
      7c:	f1 e1       	ldi	r31, 0x11	; 17
      7e:	02 c0       	rjmp	.+4      	; 0x84 <__do_copy_data+0x10>
      80:	05 90       	lpm	r0, Z+
      82:	0d 92       	st	X+, r0
      84:	ae 34       	cpi	r26, 0x4E	; 78
      86:	b1 07       	cpc	r27, r17
      88:	d9 f7       	brne	.-10     	; 0x80 <__do_copy_data+0xc>

0000008a <__do_clear_bss>:
      8a:	21 e0       	ldi	r18, 0x01	; 1
      8c:	ae e4       	ldi	r26, 0x4E	; 78
      8e:	b1 e0       	ldi	r27, 0x01	; 1
      90:	01 c0       	rjmp	.+2      	; 0x94 <.do_clear_bss_start>

00000092 <.do_clear_bss_loop>:
      92:	1d 92       	st	X+, r1

00000094 <.do_clear_bss_start>:
      94:	a4 36       	cpi	r26, 0x64	; 100
      96:	b2 07       	cpc	r27, r18
      98:	e1 f7       	brne	.-8      	; 0x92 <.do_clear_bss_loop>
      9a:	0e 94 00 03 	call	0x600	; 0x600 <main>
      9e:	0c 94 bf 08 	jmp	0x117e	; 0x117e <_exit>

000000a2 <__bad_interrupt>:
      a2:	0c 94 00 00 	jmp	0	; 0x0 <__vectors>

000000a6 <system_init>:

#include <avr/interrupt.h>

uint8_t routeSetupInProgress = 0;

void system_init(void) {
      a6:	cf 93       	push	r28
      a8:	df 93       	push	r29
      aa:	00 d0       	rcall	.+0      	; 0xac <system_init+0x6>
      ac:	1f 92       	push	r1
      ae:	cd b7       	in	r28, 0x3d	; 61
      b0:	de b7       	in	r29, 0x3e	; 62
	I2C_Init();
      b2:	0e 94 82 00 	call	0x104	; 0x104 <I2C_Init>
	LCD_Init();
      b6:	0e 94 ea 00 	call	0x1d4	; 0x1d4 <LCD_Init>
	LCD_Clear();
      ba:	0e 94 21 01 	call	0x242	; 0x242 <LCD_Clear>

	UART_init();
      be:	0e 94 e7 04 	call	0x9ce	; 0x9ce <UART_init>
	timer0_init();
      c2:	0e 94 bf 04 	call	0x97e	; 0x97e <timer0_init>

	init_74HC165_ports();
      c6:	0e 94 a2 04 	call	0x944	; 0x944 <init_74HC165_ports>
	init_74HC595_ports();
      ca:	0e 94 5a 04 	call	0x8b4	; 0x8b4 <init_74HC595_ports>
	
	initPWM();
      ce:	0e 94 1d 03 	call	0x63a	; 0x63a <initPWM>
	disablePWM(); // избавляемся от паразитного свечения
      d2:	0e 94 3b 03 	call	0x676	; 0x676 <disablePWM>

	// Очистка регистров при старте
	uint8_t initData[NUM_OF_74HC595] = {0};
      d6:	19 82       	std	Y+1, r1	; 0x01
      d8:	1a 82       	std	Y+2, r1	; 0x02
      da:	1b 82       	std	Y+3, r1	; 0x03
	shiftOutMultiple(initData, NUM_OF_74HC595);
      dc:	63 e0       	ldi	r22, 0x03	; 3
      de:	ce 01       	movw	r24, r28
      e0:	01 96       	adiw	r24, 0x01	; 1
      e2:	0e 94 8a 04 	call	0x914	; 0x914 <shiftOutMultiple>

	sei(); // Включаем глобальные прерывания
      e6:	78 94       	sei

	LCD_PrintTwoLines("Waiting for Cmd", "Cmd: ?", 0);
      e8:	40 e0       	ldi	r20, 0x00	; 0
      ea:	50 e0       	ldi	r21, 0x00	; 0
      ec:	61 e0       	ldi	r22, 0x01	; 1
      ee:	71 e0       	ldi	r23, 0x01	; 1
      f0:	88 e0       	ldi	r24, 0x08	; 8
      f2:	91 e0       	ldi	r25, 0x01	; 1
      f4:	0e 94 c9 01 	call	0x392	; 0x392 <LCD_PrintTwoLines>
	
}
      f8:	0f 90       	pop	r0
      fa:	0f 90       	pop	r0
      fc:	0f 90       	pop	r0
      fe:	df 91       	pop	r29
     100:	cf 91       	pop	r28
     102:	08 95       	ret

00000104 <I2C_Init>:



// --- Функции для работы с I2C ---
void I2C_Init(void) {
	TWSR = 0x00;             // Предделитель равен 1
     104:	10 92 b9 00 	sts	0x00B9, r1	; 0x8000b9 <__TEXT_REGION_LENGTH__+0x7f80b9>
	TWBR = 72;               // Устанавливаем скорость I2C = 100 кГц (16 МГц / 160)
     108:	88 e4       	ldi	r24, 0x48	; 72
     10a:	80 93 b8 00 	sts	0x00B8, r24	; 0x8000b8 <__TEXT_REGION_LENGTH__+0x7f80b8>
	TWCR = (1 << TWEN);      // Включаем модуль TWI
     10e:	84 e0       	ldi	r24, 0x04	; 4
     110:	80 93 bc 00 	sts	0x00BC, r24	; 0x8000bc <__TEXT_REGION_LENGTH__+0x7f80bc>
     114:	08 95       	ret

00000116 <I2C_Start>:
}

void I2C_Start(void) {
	TWCR = (1 << TWSTA) | (1 << TWEN) | (1 << TWINT);  // Генерация START
     116:	84 ea       	ldi	r24, 0xA4	; 164
     118:	80 93 bc 00 	sts	0x00BC, r24	; 0x8000bc <__TEXT_REGION_LENGTH__+0x7f80bc>
	while (!(TWCR & (1 << TWINT)));                   // Ожидание завершения
     11c:	80 91 bc 00 	lds	r24, 0x00BC	; 0x8000bc <__TEXT_REGION_LENGTH__+0x7f80bc>
     120:	88 23       	and	r24, r24
     122:	e4 f7       	brge	.-8      	; 0x11c <I2C_Start+0x6>
}
     124:	08 95       	ret

00000126 <I2C_Stop>:

void I2C_Stop(void) {
	TWCR = (1 << TWSTO) | (1 << TWEN) | (1 << TWINT);  // Генерация STOP
     126:	84 e9       	ldi	r24, 0x94	; 148
     128:	80 93 bc 00 	sts	0x00BC, r24	; 0x8000bc <__TEXT_REGION_LENGTH__+0x7f80bc>
	while (TWCR & (1 << TWSTO));                      // Ждать завершения STOP
     12c:	80 91 bc 00 	lds	r24, 0x00BC	; 0x8000bc <__TEXT_REGION_LENGTH__+0x7f80bc>
     130:	84 fd       	sbrc	r24, 4
     132:	fc cf       	rjmp	.-8      	; 0x12c <I2C_Stop+0x6>
}
     134:	08 95       	ret

00000136 <I2C_Write>:

void I2C_Write(uint8_t data) {
	TWDR = data;                                      // Загружаем данные
     136:	80 93 bb 00 	sts	0x00BB, r24	; 0x8000bb <__TEXT_REGION_LENGTH__+0x7f80bb>
	TWCR = (1 << TWEN) | (1 << TWINT);                // Начало передачи
     13a:	84 e8       	ldi	r24, 0x84	; 132
     13c:	80 93 bc 00 	sts	0x00BC, r24	; 0x8000bc <__TEXT_REGION_LENGTH__+0x7f80bc>
	while (!(TWCR & (1 << TWINT)));                   // Ожидание завершения
     140:	80 91 bc 00 	lds	r24, 0x00BC	; 0x8000bc <__TEXT_REGION_LENGTH__+0x7f80bc>
     144:	88 23       	and	r24, r24
     146:	e4 f7       	brge	.-8      	; 0x140 <I2C_Write+0xa>
}
     148:	08 95       	ret

0000014a <LCD_Send>:

// --- Функции для управления LCD ---
void LCD_Send(uint8_t data, uint8_t mode) {
     14a:	0f 93       	push	r16
     14c:	1f 93       	push	r17
     14e:	cf 93       	push	r28
     150:	df 93       	push	r29
	uint8_t highNibble = (data & 0xF0) | LCD_BACKLIGHT | mode;
     152:	d8 2f       	mov	r29, r24
     154:	d0 7f       	andi	r29, 0xF0	; 240
     156:	d6 2b       	or	r29, r22
     158:	0d 2f       	mov	r16, r29
     15a:	08 60       	ori	r16, 0x08	; 8
	uint8_t lowNibble = ((data << 4) & 0xF0) | LCD_BACKLIGHT | mode;
     15c:	20 e1       	ldi	r18, 0x10	; 16
     15e:	82 9f       	mul	r24, r18
     160:	c0 01       	movw	r24, r0
     162:	11 24       	eor	r1, r1
     164:	c6 2f       	mov	r28, r22
     166:	c8 2b       	or	r28, r24
     168:	1c 2f       	mov	r17, r28
     16a:	18 60       	ori	r17, 0x08	; 8

	I2C_Start();
     16c:	0e 94 8b 00 	call	0x116	; 0x116 <I2C_Start>
	I2C_Write(LCD_ADDRESS << 1); // Адрес устройства + бит записи
     170:	8e e4       	ldi	r24, 0x4E	; 78
     172:	0e 94 9b 00 	call	0x136	; 0x136 <I2C_Write>
	I2C_Write(highNibble);       // Отправка старших 4 бит
     176:	80 2f       	mov	r24, r16
     178:	0e 94 9b 00 	call	0x136	; 0x136 <I2C_Write>
	I2C_Write(highNibble | 0x04); // Установка EN = 1
     17c:	8d 2f       	mov	r24, r29
     17e:	8c 60       	ori	r24, 0x0C	; 12
     180:	0e 94 9b 00 	call	0x136	; 0x136 <I2C_Write>
	I2C_Write(highNibble);       // Сброс EN = 0
     184:	80 2f       	mov	r24, r16
     186:	0e 94 9b 00 	call	0x136	; 0x136 <I2C_Write>
	I2C_Write(lowNibble);        // Отправка младших 4 бит
     18a:	81 2f       	mov	r24, r17
     18c:	0e 94 9b 00 	call	0x136	; 0x136 <I2C_Write>
	I2C_Write(lowNibble | 0x04); // Установка EN = 1
     190:	8c 2f       	mov	r24, r28
     192:	8c 60       	ori	r24, 0x0C	; 12
     194:	0e 94 9b 00 	call	0x136	; 0x136 <I2C_Write>
	I2C_Write(lowNibble);        // Сброс EN = 0
     198:	81 2f       	mov	r24, r17
     19a:	0e 94 9b 00 	call	0x136	; 0x136 <I2C_Write>
	I2C_Stop();
     19e:	0e 94 93 00 	call	0x126	; 0x126 <I2C_Stop>
}
     1a2:	df 91       	pop	r29
     1a4:	cf 91       	pop	r28
     1a6:	1f 91       	pop	r17
     1a8:	0f 91       	pop	r16
     1aa:	08 95       	ret

000001ac <LCD_Command>:

void LCD_Command(uint8_t command) {
	LCD_Send(command, 0x00); // Передача команды (режим RS = 0)
     1ac:	60 e0       	ldi	r22, 0x00	; 0
     1ae:	0e 94 a5 00 	call	0x14a	; 0x14a <LCD_Send>
	#else
		//round up by default
		__ticks_dc = (uint32_t)(ceil(fabs(__tmp)));
	#endif

	__builtin_avr_delay_cycles(__ticks_dc);
     1b2:	8f e3       	ldi	r24, 0x3F	; 63
     1b4:	9f e1       	ldi	r25, 0x1F	; 31
     1b6:	01 97       	sbiw	r24, 0x01	; 1
     1b8:	f1 f7       	brne	.-4      	; 0x1b6 <LCD_Command+0xa>
     1ba:	00 c0       	rjmp	.+0      	; 0x1bc <LCD_Command+0x10>
     1bc:	00 00       	nop
     1be:	08 95       	ret

000001c0 <LCD_Data>:
	_delay_ms(2);            // Небольшая задержка
}

void LCD_Data(uint8_t data) {
	LCD_Send(data, 0x01);    // Передача данных (режим RS = 1)
     1c0:	61 e0       	ldi	r22, 0x01	; 1
     1c2:	0e 94 a5 00 	call	0x14a	; 0x14a <LCD_Send>
     1c6:	8f e3       	ldi	r24, 0x3F	; 63
     1c8:	9f e1       	ldi	r25, 0x1F	; 31
     1ca:	01 97       	sbiw	r24, 0x01	; 1
     1cc:	f1 f7       	brne	.-4      	; 0x1ca <LCD_Data+0xa>
     1ce:	00 c0       	rjmp	.+0      	; 0x1d0 <LCD_Data+0x10>
     1d0:	00 00       	nop
     1d2:	08 95       	ret

000001d4 <LCD_Init>:
     1d4:	2f ef       	ldi	r18, 0xFF	; 255
     1d6:	80 e7       	ldi	r24, 0x70	; 112
     1d8:	92 e0       	ldi	r25, 0x02	; 2
     1da:	21 50       	subi	r18, 0x01	; 1
     1dc:	80 40       	sbci	r24, 0x00	; 0
     1de:	90 40       	sbci	r25, 0x00	; 0
     1e0:	e1 f7       	brne	.-8      	; 0x1da <LCD_Init+0x6>
     1e2:	00 c0       	rjmp	.+0      	; 0x1e4 <LCD_Init+0x10>
     1e4:	00 00       	nop
	_delay_ms(2);            // Небольшая задержка
}

void LCD_Init(void) {
	_delay_ms(50);           // Задержка после подачи питания
	LCD_Command(0x03);       // Режим 8-битной шины
     1e6:	83 e0       	ldi	r24, 0x03	; 3
     1e8:	0e 94 d6 00 	call	0x1ac	; 0x1ac <LCD_Command>
     1ec:	8f e1       	ldi	r24, 0x1F	; 31
     1ee:	9e e4       	ldi	r25, 0x4E	; 78
     1f0:	01 97       	sbiw	r24, 0x01	; 1
     1f2:	f1 f7       	brne	.-4      	; 0x1f0 <LCD_Init+0x1c>
     1f4:	00 c0       	rjmp	.+0      	; 0x1f6 <LCD_Init+0x22>
     1f6:	00 00       	nop
	_delay_ms(5);
	LCD_Command(0x03);       // Повтор команды
     1f8:	83 e0       	ldi	r24, 0x03	; 3
     1fa:	0e 94 d6 00 	call	0x1ac	; 0x1ac <LCD_Command>
	#else
		//round up by default
		__ticks_dc = (uint32_t)(ceil(fabs(__tmp)));
	#endif

	__builtin_avr_delay_cycles(__ticks_dc);
     1fe:	87 e5       	ldi	r24, 0x57	; 87
     200:	92 e0       	ldi	r25, 0x02	; 2
     202:	01 97       	sbiw	r24, 0x01	; 1
     204:	f1 f7       	brne	.-4      	; 0x202 <LCD_Init+0x2e>
     206:	00 c0       	rjmp	.+0      	; 0x208 <LCD_Init+0x34>
     208:	00 00       	nop
	_delay_us(150);
	LCD_Command(0x03);       // Повтор команды
     20a:	83 e0       	ldi	r24, 0x03	; 3
     20c:	0e 94 d6 00 	call	0x1ac	; 0x1ac <LCD_Command>
	LCD_Command(0x02);       // Переход в 4-битный режим
     210:	82 e0       	ldi	r24, 0x02	; 2
     212:	0e 94 d6 00 	call	0x1ac	; 0x1ac <LCD_Command>

	// Конфигурация дисплея
	LCD_Command(0x28);       // 4-битный режим, 2 строки, 5x8 точки
     216:	88 e2       	ldi	r24, 0x28	; 40
     218:	0e 94 d6 00 	call	0x1ac	; 0x1ac <LCD_Command>
	LCD_Command(0x08);       // Выключить дисплей
     21c:	88 e0       	ldi	r24, 0x08	; 8
     21e:	0e 94 d6 00 	call	0x1ac	; 0x1ac <LCD_Command>
	LCD_Command(0x01);       // Очистить дисплей
     222:	81 e0       	ldi	r24, 0x01	; 1
     224:	0e 94 d6 00 	call	0x1ac	; 0x1ac <LCD_Command>
	#else
		//round up by default
		__ticks_dc = (uint32_t)(ceil(fabs(__tmp)));
	#endif

	__builtin_avr_delay_cycles(__ticks_dc);
     228:	8f e3       	ldi	r24, 0x3F	; 63
     22a:	9f e1       	ldi	r25, 0x1F	; 31
     22c:	01 97       	sbiw	r24, 0x01	; 1
     22e:	f1 f7       	brne	.-4      	; 0x22c <LCD_Init+0x58>
     230:	00 c0       	rjmp	.+0      	; 0x232 <LCD_Init+0x5e>
     232:	00 00       	nop
	_delay_ms(2);
	LCD_Command(0x06);       // Инкремент курсора
     234:	86 e0       	ldi	r24, 0x06	; 6
     236:	0e 94 d6 00 	call	0x1ac	; 0x1ac <LCD_Command>
	LCD_Command(0x0C);       // Включить дисплей, курсор выключен
     23a:	8c e0       	ldi	r24, 0x0C	; 12
     23c:	0e 94 d6 00 	call	0x1ac	; 0x1ac <LCD_Command>
     240:	08 95       	ret

00000242 <LCD_Clear>:
}

void LCD_Clear(void) {
	LCD_Command(0x01);       // Очистка дисплея
     242:	81 e0       	ldi	r24, 0x01	; 1
     244:	0e 94 d6 00 	call	0x1ac	; 0x1ac <LCD_Command>
     248:	8f e3       	ldi	r24, 0x3F	; 63
     24a:	9f e1       	ldi	r25, 0x1F	; 31
     24c:	01 97       	sbiw	r24, 0x01	; 1
     24e:	f1 f7       	brne	.-4      	; 0x24c <LCD_Clear+0xa>
     250:	00 c0       	rjmp	.+0      	; 0x252 <LCD_Clear+0x10>
     252:	00 00       	nop
     254:	08 95       	ret

00000256 <LCD_SetCursor>:
	_delay_ms(2);
}

void LCD_SetCursor(uint8_t col, uint8_t row) {
     256:	cf 93       	push	r28
     258:	df 93       	push	r29
     25a:	00 d0       	rcall	.+0      	; 0x25c <LCD_SetCursor+0x6>
     25c:	00 d0       	rcall	.+0      	; 0x25e <LCD_SetCursor+0x8>
     25e:	cd b7       	in	r28, 0x3d	; 61
     260:	de b7       	in	r29, 0x3e	; 62
	uint8_t row_offsets[] = {0x00, 0x40, 0x14, 0x54};
     262:	19 82       	std	Y+1, r1	; 0x01
     264:	90 e4       	ldi	r25, 0x40	; 64
     266:	9a 83       	std	Y+2, r25	; 0x02
     268:	94 e1       	ldi	r25, 0x14	; 20
     26a:	9b 83       	std	Y+3, r25	; 0x03
     26c:	94 e5       	ldi	r25, 0x54	; 84
     26e:	9c 83       	std	Y+4, r25	; 0x04
	LCD_Command(0x80 | (col + row_offsets[row])); // Установка адреса DDRAM
     270:	e1 e0       	ldi	r30, 0x01	; 1
     272:	f0 e0       	ldi	r31, 0x00	; 0
     274:	ec 0f       	add	r30, r28
     276:	fd 1f       	adc	r31, r29
     278:	e6 0f       	add	r30, r22
     27a:	f1 1d       	adc	r31, r1
     27c:	90 81       	ld	r25, Z
     27e:	89 0f       	add	r24, r25
     280:	80 68       	ori	r24, 0x80	; 128
     282:	0e 94 d6 00 	call	0x1ac	; 0x1ac <LCD_Command>
}
     286:	0f 90       	pop	r0
     288:	0f 90       	pop	r0
     28a:	0f 90       	pop	r0
     28c:	0f 90       	pop	r0
     28e:	df 91       	pop	r29
     290:	cf 91       	pop	r28
     292:	08 95       	ret

00000294 <LCD_Print>:

void LCD_Print(char* str) {
     294:	cf 93       	push	r28
     296:	df 93       	push	r29
     298:	ec 01       	movw	r28, r24
	while (*str) {
     29a:	03 c0       	rjmp	.+6      	; 0x2a2 <LCD_Print+0xe>
		LCD_Data(*str++);
     29c:	21 96       	adiw	r28, 0x01	; 1
     29e:	0e 94 e0 00 	call	0x1c0	; 0x1c0 <LCD_Data>
	uint8_t row_offsets[] = {0x00, 0x40, 0x14, 0x54};
	LCD_Command(0x80 | (col + row_offsets[row])); // Установка адреса DDRAM
}

void LCD_Print(char* str) {
	while (*str) {
     2a2:	88 81       	ld	r24, Y
     2a4:	81 11       	cpse	r24, r1
     2a6:	fa cf       	rjmp	.-12     	; 0x29c <LCD_Print+0x8>
		LCD_Data(*str++);
	}
}
     2a8:	df 91       	pop	r29
     2aa:	cf 91       	pop	r28
     2ac:	08 95       	ret

000002ae <LCD_Blink>:

void LCD_Blink(char* buffer) {
     2ae:	af 92       	push	r10
     2b0:	bf 92       	push	r11
     2b2:	cf 92       	push	r12
     2b4:	df 92       	push	r13
     2b6:	ef 92       	push	r14
     2b8:	ff 92       	push	r15
     2ba:	0f 93       	push	r16
     2bc:	1f 93       	push	r17
     2be:	cf 93       	push	r28
     2c0:	df 93       	push	r29
     2c2:	cd b7       	in	r28, 0x3d	; 61
     2c4:	de b7       	in	r29, 0x3e	; 62
     2c6:	fc 01       	movw	r30, r24
		blankString[length] = '\0'; // Завершаем строку нулевым символом
		LCD_Print(blankString); // Печатаем пустую строку
		} else {
		LCD_Print(buffer); // Печатаем строку
	}
}
     2c8:	0d b7       	in	r16, 0x3d	; 61
     2ca:	1e b7       	in	r17, 0x3e	; 62

void LCD_Blink(char* buffer) {
	static uint8_t toggle = 0; // Флаг переключения
	static uint8_t counter = 0; // Счетчик для контроля мигания
	uint8_t blinkCyclesNumber = 20; // Количество циклов между миганиями
	uint8_t length = strlen(buffer); // Длина строки
     2cc:	dc 01       	movw	r26, r24
     2ce:	0d 90       	ld	r0, X+
     2d0:	00 20       	and	r0, r0
     2d2:	e9 f7       	brne	.-6      	; 0x2ce <LCD_Blink+0x20>
     2d4:	11 97       	sbiw	r26, 0x01	; 1
     2d6:	9d 01       	movw	r18, r26
     2d8:	28 1b       	sub	r18, r24
     2da:	39 0b       	sbc	r19, r25
	
	counter = (counter + 1) % 255; // Предотвращение переполнения
     2dc:	80 91 50 01 	lds	r24, 0x0150	; 0x800150 <counter.1816>
     2e0:	90 e0       	ldi	r25, 0x00	; 0
     2e2:	01 96       	adiw	r24, 0x01	; 1
     2e4:	6f ef       	ldi	r22, 0xFF	; 255
     2e6:	70 e0       	ldi	r23, 0x00	; 0
     2e8:	0e 94 98 05 	call	0xb30	; 0xb30 <__divmodhi4>
     2ec:	80 93 50 01 	sts	0x0150, r24	; 0x800150 <counter.1816>

	if (counter % blinkCyclesNumber == 0) {
     2f0:	9d ec       	ldi	r25, 0xCD	; 205
     2f2:	89 9f       	mul	r24, r25
     2f4:	91 2d       	mov	r25, r1
     2f6:	11 24       	eor	r1, r1
     2f8:	92 95       	swap	r25
     2fa:	9f 70       	andi	r25, 0x0F	; 15
     2fc:	99 0f       	add	r25, r25
     2fe:	99 0f       	add	r25, r25
     300:	49 2f       	mov	r20, r25
     302:	44 0f       	add	r20, r20
     304:	44 0f       	add	r20, r20
     306:	94 0f       	add	r25, r20
     308:	98 13       	cpse	r25, r24
     30a:	07 c0       	rjmp	.+14     	; 0x31a <LCD_Blink+0x6c>
		toggle = !toggle; // Меняем состояние
     30c:	81 e0       	ldi	r24, 0x01	; 1
     30e:	90 91 4f 01 	lds	r25, 0x014F	; 0x80014f <toggle.1815>
     312:	91 11       	cpse	r25, r1
     314:	80 e0       	ldi	r24, 0x00	; 0
     316:	80 93 4f 01 	sts	0x014F, r24	; 0x80014f <toggle.1815>
	}

	if (toggle) {
     31a:	80 91 4f 01 	lds	r24, 0x014F	; 0x80014f <toggle.1815>
     31e:	88 23       	and	r24, r24
     320:	29 f1       	breq	.+74     	; 0x36c <LCD_Blink+0xbe>
     322:	cd b6       	in	r12, 0x3d	; 61
     324:	de b6       	in	r13, 0x3e	; 62
     326:	79 01       	movw	r14, r18
     328:	ff 24       	eor	r15, r15
		// Создаем строку из пробелов такой же длины, как buffer
		char blankString[length + 1];
     32a:	c7 01       	movw	r24, r14
     32c:	01 96       	adiw	r24, 0x01	; 1
     32e:	2d b7       	in	r18, 0x3d	; 61
     330:	3e b7       	in	r19, 0x3e	; 62
     332:	28 1b       	sub	r18, r24
     334:	39 0b       	sbc	r19, r25
     336:	0f b6       	in	r0, 0x3f	; 63
     338:	f8 94       	cli
     33a:	3e bf       	out	0x3e, r19	; 62
     33c:	0f be       	out	0x3f, r0	; 63
     33e:	2d bf       	out	0x3d, r18	; 61
     340:	8d b7       	in	r24, 0x3d	; 61
     342:	9e b7       	in	r25, 0x3e	; 62
     344:	01 96       	adiw	r24, 0x01	; 1
     346:	5c 01       	movw	r10, r24
		memset(blankString, ' ', length);
     348:	a7 01       	movw	r20, r14
     34a:	60 e2       	ldi	r22, 0x20	; 32
     34c:	70 e0       	ldi	r23, 0x00	; 0
     34e:	0e 94 c0 05 	call	0xb80	; 0xb80 <memset>
		blankString[length] = '\0'; // Завершаем строку нулевым символом
     352:	f5 01       	movw	r30, r10
     354:	ee 0d       	add	r30, r14
     356:	ff 1d       	adc	r31, r15
     358:	10 82       	st	Z, r1
		LCD_Print(blankString); // Печатаем пустую строку
     35a:	c5 01       	movw	r24, r10
     35c:	0e 94 4a 01 	call	0x294	; 0x294 <LCD_Print>
     360:	0f b6       	in	r0, 0x3f	; 63
     362:	f8 94       	cli
     364:	de be       	out	0x3e, r13	; 62
     366:	0f be       	out	0x3f, r0	; 63
     368:	cd be       	out	0x3d, r12	; 61
     36a:	03 c0       	rjmp	.+6      	; 0x372 <LCD_Blink+0xc4>
		} else {
		LCD_Print(buffer); // Печатаем строку
     36c:	cf 01       	movw	r24, r30
     36e:	0e 94 4a 01 	call	0x294	; 0x294 <LCD_Print>
	}
}
     372:	0f b6       	in	r0, 0x3f	; 63
     374:	f8 94       	cli
     376:	1e bf       	out	0x3e, r17	; 62
     378:	0f be       	out	0x3f, r0	; 63
     37a:	0d bf       	out	0x3d, r16	; 61
     37c:	df 91       	pop	r29
     37e:	cf 91       	pop	r28
     380:	1f 91       	pop	r17
     382:	0f 91       	pop	r16
     384:	ff 90       	pop	r15
     386:	ef 90       	pop	r14
     388:	df 90       	pop	r13
     38a:	cf 90       	pop	r12
     38c:	bf 90       	pop	r11
     38e:	af 90       	pop	r10
     390:	08 95       	ret

00000392 <LCD_PrintTwoLines>:


void LCD_PrintTwoLines(char* firstLineText, char* secondLineText, int blink) {
     392:	ef 92       	push	r14
     394:	ff 92       	push	r15
     396:	0f 93       	push	r16
     398:	1f 93       	push	r17
     39a:	cf 93       	push	r28
     39c:	df 93       	push	r29
     39e:	8c 01       	movw	r16, r24
     3a0:	7b 01       	movw	r14, r22
     3a2:	ea 01       	movw	r28, r20
	
		LCD_SetCursor(0, 0);
     3a4:	60 e0       	ldi	r22, 0x00	; 0
     3a6:	80 e0       	ldi	r24, 0x00	; 0
     3a8:	0e 94 2b 01 	call	0x256	; 0x256 <LCD_SetCursor>
		LCD_Print(firstLineText);
     3ac:	c8 01       	movw	r24, r16
     3ae:	0e 94 4a 01 	call	0x294	; 0x294 <LCD_Print>
		LCD_SetCursor(0, 1);
     3b2:	61 e0       	ldi	r22, 0x01	; 1
     3b4:	80 e0       	ldi	r24, 0x00	; 0
     3b6:	0e 94 2b 01 	call	0x256	; 0x256 <LCD_SetCursor>
		
		if (blink == 1)	{
     3ba:	21 97       	sbiw	r28, 0x01	; 1
     3bc:	21 f4       	brne	.+8      	; 0x3c6 <LCD_PrintTwoLines+0x34>
			LCD_Blink(secondLineText);
     3be:	c7 01       	movw	r24, r14
     3c0:	0e 94 57 01 	call	0x2ae	; 0x2ae <LCD_Blink>
     3c4:	03 c0       	rjmp	.+6      	; 0x3cc <LCD_PrintTwoLines+0x3a>
		}
		else {
			LCD_Print(secondLineText);			
     3c6:	c7 01       	movw	r24, r14
     3c8:	0e 94 4a 01 	call	0x294	; 0x294 <LCD_Print>
		}
}
     3cc:	df 91       	pop	r29
     3ce:	cf 91       	pop	r28
     3d0:	1f 91       	pop	r17
     3d2:	0f 91       	pop	r16
     3d4:	ff 90       	pop	r15
     3d6:	ef 90       	pop	r14
     3d8:	08 95       	ret

000003da <update_lcd>:

void update_lcd(uint8_t cmd) {
     3da:	0f 93       	push	r16
     3dc:	1f 93       	push	r17
     3de:	cf 93       	push	r28
     3e0:	df 93       	push	r29
     3e2:	cd b7       	in	r28, 0x3d	; 61
     3e4:	de b7       	in	r29, 0x3e	; 62
     3e6:	60 97       	sbiw	r28, 0x10	; 16
     3e8:	0f b6       	in	r0, 0x3f	; 63
     3ea:	f8 94       	cli
     3ec:	de bf       	out	0x3e, r29	; 62
     3ee:	0f be       	out	0x3f, r0	; 63
     3f0:	cd bf       	out	0x3d, r28	; 61
	char buffer[16];
	snprintf(buffer, sizeof(buffer), "Cmd: %02X", cmd);
     3f2:	1f 92       	push	r1
     3f4:	8f 93       	push	r24
     3f6:	88 e1       	ldi	r24, 0x18	; 24
     3f8:	91 e0       	ldi	r25, 0x01	; 1
     3fa:	9f 93       	push	r25
     3fc:	8f 93       	push	r24
     3fe:	1f 92       	push	r1
     400:	80 e1       	ldi	r24, 0x10	; 16
     402:	8f 93       	push	r24
     404:	8e 01       	movw	r16, r28
     406:	0f 5f       	subi	r16, 0xFF	; 255
     408:	1f 4f       	sbci	r17, 0xFF	; 255
     40a:	1f 93       	push	r17
     40c:	0f 93       	push	r16
     40e:	0e 94 c7 05 	call	0xb8e	; 0xb8e <snprintf>
	LCD_Clear();
     412:	0e 94 21 01 	call	0x242	; 0x242 <LCD_Clear>
	LCD_PrintTwoLines("Received", buffer, 0);
     416:	40 e0       	ldi	r20, 0x00	; 0
     418:	50 e0       	ldi	r21, 0x00	; 0
     41a:	b8 01       	movw	r22, r16
     41c:	82 e2       	ldi	r24, 0x22	; 34
     41e:	91 e0       	ldi	r25, 0x01	; 1
     420:	0e 94 c9 01 	call	0x392	; 0x392 <LCD_PrintTwoLines>
}
     424:	0f b6       	in	r0, 0x3f	; 63
     426:	f8 94       	cli
     428:	de bf       	out	0x3e, r29	; 62
     42a:	0f be       	out	0x3f, r0	; 63
     42c:	cd bf       	out	0x3d, r28	; 61
     42e:	60 96       	adiw	r28, 0x10	; 16
     430:	0f b6       	in	r0, 0x3f	; 63
     432:	f8 94       	cli
     434:	de bf       	out	0x3e, r29	; 62
     436:	0f be       	out	0x3f, r0	; 63
     438:	cd bf       	out	0x3d, r28	; 61
     43a:	df 91       	pop	r29
     43c:	cf 91       	pop	r28
     43e:	1f 91       	pop	r17
     440:	0f 91       	pop	r16
     442:	08 95       	ret

00000444 <print_triggered_sensor>:

void print_triggered_sensor(uint8_t states) {
     444:	cf 93       	push	r28
     446:	df 93       	push	r29
     448:	cd b7       	in	r28, 0x3d	; 61
     44a:	de b7       	in	r29, 0x3e	; 62
     44c:	a1 97       	sbiw	r28, 0x21	; 33
     44e:	0f b6       	in	r0, 0x3f	; 63
     450:	f8 94       	cli
     452:	de bf       	out	0x3e, r29	; 62
     454:	0f be       	out	0x3f, r0	; 63
     456:	cd bf       	out	0x3d, r28	; 61
	char line1[] = "Sensor triggered";
     458:	91 e1       	ldi	r25, 0x11	; 17
     45a:	eb e2       	ldi	r30, 0x2B	; 43
     45c:	f1 e0       	ldi	r31, 0x01	; 1
     45e:	de 01       	movw	r26, r28
     460:	11 96       	adiw	r26, 0x01	; 1
     462:	01 90       	ld	r0, Z+
     464:	0d 92       	st	X+, r0
     466:	9a 95       	dec	r25
     468:	e1 f7       	brne	.-8      	; 0x462 <print_triggered_sensor+0x1e>
	char line2[16];

	// Заполняем строку бинарным представлением
	for (uint8_t i = 0; i < 8; i++) {
     46a:	90 e0       	ldi	r25, 0x00	; 0
     46c:	1a c0       	rjmp	.+52     	; 0x4a2 <print_triggered_sensor+0x5e>
		line2[i] = (states & (1 << (7 - i))) ? '1' : '0';
     46e:	29 2f       	mov	r18, r25
     470:	30 e0       	ldi	r19, 0x00	; 0
     472:	67 e0       	ldi	r22, 0x07	; 7
     474:	70 e0       	ldi	r23, 0x00	; 0
     476:	62 1b       	sub	r22, r18
     478:	73 0b       	sbc	r23, r19
     47a:	48 2f       	mov	r20, r24
     47c:	50 e0       	ldi	r21, 0x00	; 0
     47e:	02 c0       	rjmp	.+4      	; 0x484 <print_triggered_sensor+0x40>
     480:	55 95       	asr	r21
     482:	47 95       	ror	r20
     484:	6a 95       	dec	r22
     486:	e2 f7       	brpl	.-8      	; 0x480 <print_triggered_sensor+0x3c>
     488:	40 ff       	sbrs	r20, 0
     48a:	02 c0       	rjmp	.+4      	; 0x490 <print_triggered_sensor+0x4c>
     48c:	41 e3       	ldi	r20, 0x31	; 49
     48e:	01 c0       	rjmp	.+2      	; 0x492 <print_triggered_sensor+0x4e>
     490:	40 e3       	ldi	r20, 0x30	; 48
     492:	e2 e1       	ldi	r30, 0x12	; 18
     494:	f0 e0       	ldi	r31, 0x00	; 0
     496:	ec 0f       	add	r30, r28
     498:	fd 1f       	adc	r31, r29
     49a:	e2 0f       	add	r30, r18
     49c:	f3 1f       	adc	r31, r19
     49e:	40 83       	st	Z, r20
void print_triggered_sensor(uint8_t states) {
	char line1[] = "Sensor triggered";
	char line2[16];

	// Заполняем строку бинарным представлением
	for (uint8_t i = 0; i < 8; i++) {
     4a0:	9f 5f       	subi	r25, 0xFF	; 255
     4a2:	98 30       	cpi	r25, 0x08	; 8
     4a4:	20 f3       	brcs	.-56     	; 0x46e <print_triggered_sensor+0x2a>
		line2[i] = (states & (1 << (7 - i))) ? '1' : '0';
	}
	line2[8] = '\0'; // Завершаем строку
     4a6:	1a 8e       	std	Y+26, r1	; 0x1a

	LCD_Clear();
     4a8:	0e 94 21 01 	call	0x242	; 0x242 <LCD_Clear>
	LCD_PrintTwoLines(line1, line2, 0);
     4ac:	40 e0       	ldi	r20, 0x00	; 0
     4ae:	50 e0       	ldi	r21, 0x00	; 0
     4b0:	be 01       	movw	r22, r28
     4b2:	6e 5e       	subi	r22, 0xEE	; 238
     4b4:	7f 4f       	sbci	r23, 0xFF	; 255
     4b6:	ce 01       	movw	r24, r28
     4b8:	01 96       	adiw	r24, 0x01	; 1
     4ba:	0e 94 c9 01 	call	0x392	; 0x392 <LCD_PrintTwoLines>
}
     4be:	a1 96       	adiw	r28, 0x21	; 33
     4c0:	0f b6       	in	r0, 0x3f	; 63
     4c2:	f8 94       	cli
     4c4:	de bf       	out	0x3e, r29	; 62
     4c6:	0f be       	out	0x3f, r0	; 63
     4c8:	cd bf       	out	0x3d, r28	; 61
     4ca:	df 91       	pop	r29
     4cc:	cf 91       	pop	r28
     4ce:	08 95       	ret

000004d0 <LocoStop>:
#include "config.h"
#include "loco_control.h"
#include "shift_registers.h"
#include "railroad_control.h"

void LocoStop(void) {
     4d0:	cf 93       	push	r28
     4d2:	df 93       	push	r29
     4d4:	00 d0       	rcall	.+0      	; 0x4d6 <LocoStop+0x6>
     4d6:	1f 92       	push	r1
     4d8:	cd b7       	in	r28, 0x3d	; 61
     4da:	de b7       	in	r29, 0x3e	; 62
	disablePWM();
     4dc:	0e 94 3b 03 	call	0x676	; 0x676 <disablePWM>
	uint8_t shiftData[NUM_OF_74HC595] = {0};
     4e0:	19 82       	std	Y+1, r1	; 0x01
     4e2:	1a 82       	std	Y+2, r1	; 0x02
     4e4:	1b 82       	std	Y+3, r1	; 0x03
	shiftOutMultiple(shiftData, NUM_OF_74HC595);
     4e6:	63 e0       	ldi	r22, 0x03	; 3
     4e8:	ce 01       	movw	r24, r28
     4ea:	01 96       	adiw	r24, 0x01	; 1
     4ec:	0e 94 8a 04 	call	0x914	; 0x914 <shiftOutMultiple>
	reset_route_state();
     4f0:	0e 94 a4 03 	call	0x748	; 0x748 <reset_route_state>
	routeSetupInProgress = 0;
     4f4:	10 92 4e 01 	sts	0x014E, r1	; 0x80014e <__data_end>
}
     4f8:	0f 90       	pop	r0
     4fa:	0f 90       	pop	r0
     4fc:	0f 90       	pop	r0
     4fe:	df 91       	pop	r29
     500:	cf 91       	pop	r28
     502:	08 95       	ret

00000504 <MoveLocoForward>:

void MoveLocoForward(void) {
     504:	cf 93       	push	r28
     506:	df 93       	push	r29
     508:	00 d0       	rcall	.+0      	; 0x50a <MoveLocoForward+0x6>
     50a:	1f 92       	push	r1
     50c:	cd b7       	in	r28, 0x3d	; 61
     50e:	de b7       	in	r29, 0x3e	; 62
	uint8_t shiftData[NUM_OF_74HC595] = {0};
     510:	19 82       	std	Y+1, r1	; 0x01
     512:	1a 82       	std	Y+2, r1	; 0x02
     514:	1b 82       	std	Y+3, r1	; 0x03
	shiftData[2] = LOCO_FORWARD;
     516:	81 e0       	ldi	r24, 0x01	; 1
     518:	8b 83       	std	Y+3, r24	; 0x03
	shiftOutMultiple(shiftData, NUM_OF_74HC595);
     51a:	63 e0       	ldi	r22, 0x03	; 3
     51c:	ce 01       	movw	r24, r28
     51e:	01 96       	adiw	r24, 0x01	; 1
     520:	0e 94 8a 04 	call	0x914	; 0x914 <shiftOutMultiple>
	startPWMUp();
     524:	0e 94 48 03 	call	0x690	; 0x690 <startPWMUp>
}
     528:	0f 90       	pop	r0
     52a:	0f 90       	pop	r0
     52c:	0f 90       	pop	r0
     52e:	df 91       	pop	r29
     530:	cf 91       	pop	r28
     532:	08 95       	ret

00000534 <MoveLocoBackward>:

void MoveLocoBackward(void) {
     534:	cf 93       	push	r28
     536:	df 93       	push	r29
     538:	00 d0       	rcall	.+0      	; 0x53a <MoveLocoBackward+0x6>
     53a:	1f 92       	push	r1
     53c:	cd b7       	in	r28, 0x3d	; 61
     53e:	de b7       	in	r29, 0x3e	; 62
	uint8_t shiftData[NUM_OF_74HC595] = {0};
     540:	19 82       	std	Y+1, r1	; 0x01
     542:	1a 82       	std	Y+2, r1	; 0x02
     544:	1b 82       	std	Y+3, r1	; 0x03
	shiftData[NUM_OF_74HC595 - 1] = LOCO_BACKWARD;
     546:	82 e0       	ldi	r24, 0x02	; 2
     548:	8b 83       	std	Y+3, r24	; 0x03
	shiftOutMultiple(shiftData, NUM_OF_74HC595);
     54a:	63 e0       	ldi	r22, 0x03	; 3
     54c:	ce 01       	movw	r24, r28
     54e:	01 96       	adiw	r24, 0x01	; 1
     550:	0e 94 8a 04 	call	0x914	; 0x914 <shiftOutMultiple>
	routeSetupInProgress = 0;
     554:	10 92 4e 01 	sts	0x014E, r1	; 0x80014e <__data_end>
}
     558:	0f 90       	pop	r0
     55a:	0f 90       	pop	r0
     55c:	0f 90       	pop	r0
     55e:	df 91       	pop	r29
     560:	cf 91       	pop	r28
     562:	08 95       	ret

00000564 <_Z17checkSensorsStatev>:
uint8_t previousSensorStates = 0xFF;


void checkSensorsState() {
	
	sensorStates = ~read_74HC165(); // если активный высокий уровень с регистра
     564:	0e 94 3b 04 	call	0x876	; 0x876 <read_74HC165>
     568:	80 95       	com	r24
     56a:	80 93 54 01 	sts	0x0154, r24	; 0x800154 <_ZL12sensorStates>

	if (sensorStates != previousSensorStates) {
     56e:	90 91 00 01 	lds	r25, 0x0100	; 0x800100 <__DATA_REGION_ORIGIN__>
     572:	89 17       	cp	r24, r25
     574:	b9 f0       	breq	.+46     	; 0x5a4 <_Z17checkSensorsStatev+0x40>
		uint8_t changedBits = sensorStates ^ previousSensorStates;
     576:	98 27       	eor	r25, r24
		triggeredBitMask = sensorStates & changedBits;
     578:	98 23       	and	r25, r24
     57a:	90 93 53 01 	sts	0x0153, r25	; 0x800153 <triggeredBitMask>

		previousSensorStates = sensorStates;
     57e:	80 93 00 01 	sts	0x0100, r24	; 0x800100 <__DATA_REGION_ORIGIN__>

		if (triggeredBitMask) {
     582:	99 23       	and	r25, r25
     584:	79 f0       	breq	.+30     	; 0x5a4 <_Z17checkSensorsStatev+0x40>
			// Если сработал последний датчик (например, 8-й — SENSOR_8)
			if (triggeredBitMask & TABLE_END_WAY_SENSOR) {
     586:	2c f4       	brge	.+10     	; 0x592 <_Z17checkSensorsStatev+0x2e>
				triggeredBitsHistory = 0;
     588:	10 92 52 01 	sts	0x0152, r1	; 0x800152 <triggeredBitsHistory>
				LocoStop();  // обязательная остановка
     58c:	0e 94 68 02 	call	0x4d0	; 0x4d0 <LocoStop>
     590:	05 c0       	rjmp	.+10     	; 0x59c <_Z17checkSensorsStatev+0x38>
				} 
				else {
				triggeredBitsHistory |= triggeredBitMask;
     592:	80 91 52 01 	lds	r24, 0x0152	; 0x800152 <triggeredBitsHistory>
     596:	98 2b       	or	r25, r24
     598:	90 93 52 01 	sts	0x0152, r25	; 0x800152 <triggeredBitsHistory>

			}

			print_triggered_sensor(triggeredBitsHistory);
     59c:	80 91 52 01 	lds	r24, 0x0152	; 0x800152 <triggeredBitsHistory>
     5a0:	0e 94 22 02 	call	0x444	; 0x444 <print_triggered_sensor>
     5a4:	08 95       	ret

000005a6 <_Z14process_packet11UART_Packet>:
		}
	}
}


void process_packet(UART_Packet packet) {
     5a6:	cf 93       	push	r28
     5a8:	df 93       	push	r29
	if (!packet.valid) {
     5aa:	99 23       	and	r25, r25
     5ac:	31 f1       	breq	.+76     	; 0x5fa <_Z14process_packet11UART_Packet+0x54>
     5ae:	d7 2f       	mov	r29, r23
     5b0:	c6 2f       	mov	r28, r22
		return;
	}
	
	switch (packet.cmd) {
     5b2:	61 32       	cpi	r22, 0x21	; 33
     5b4:	d1 f0       	breq	.+52     	; 0x5ea <_Z14process_packet11UART_Packet+0x44>
     5b6:	60 33       	cpi	r22, 0x30	; 48
     5b8:	19 f0       	breq	.+6      	; 0x5c0 <_Z14process_packet11UART_Packet+0x1a>
     5ba:	60 32       	cpi	r22, 0x20	; 32
     5bc:	d9 f4       	brne	.+54     	; 0x5f4 <_Z14process_packet11UART_Packet+0x4e>
     5be:	06 c0       	rjmp	.+12     	; 0x5cc <_Z14process_packet11UART_Packet+0x26>
		case CMD_STOP: // STOP
		{
			LocoStop();
     5c0:	0e 94 68 02 	call	0x4d0	; 0x4d0 <LocoStop>
		}
		send_ack(packet.cmd);
     5c4:	8c 2f       	mov	r24, r28
     5c6:	0e 94 92 05 	call	0xb24	; 0xb24 <send_ack>
		break;
     5ca:	14 c0       	rjmp	.+40     	; 0x5f4 <_Z14process_packet11UART_Packet+0x4e>
		
		case CMD_FORWARD: // MOVE_FORWARD
			LocoStop();
     5cc:	0e 94 68 02 	call	0x4d0	; 0x4d0 <LocoStop>

		send_ack(packet.cmd);
     5d0:	8c 2f       	mov	r24, r28
     5d2:	0e 94 92 05 	call	0xb24	; 0xb24 <send_ack>
		if (!routeSetupInProgress) {
     5d6:	80 91 4e 01 	lds	r24, 0x014E	; 0x80014e <__data_end>
     5da:	81 11       	cpse	r24, r1
     5dc:	0b c0       	rjmp	.+22     	; 0x5f4 <_Z14process_packet11UART_Packet+0x4e>
			SelectedTable = packet.table_id;
     5de:	d0 93 51 01 	sts	0x0151, r29	; 0x800151 <SelectedTable>
			routeSetupInProgress = 1;
     5e2:	81 e0       	ldi	r24, 0x01	; 1
     5e4:	80 93 4e 01 	sts	0x014E, r24	; 0x80014e <__data_end>
     5e8:	05 c0       	rjmp	.+10     	; 0x5f4 <_Z14process_packet11UART_Packet+0x4e>
		}
		break;
		
		case CMD_BACKWARD: // MOVE_BACKWARD
		{
			MoveLocoBackward();
     5ea:	0e 94 9a 02 	call	0x534	; 0x534 <MoveLocoBackward>
		}
		send_ack(packet.cmd);
     5ee:	8c 2f       	mov	r24, r28
     5f0:	0e 94 92 05 	call	0xb24	; 0xb24 <send_ack>
		
		default:
		break;
	}
	
	update_lcd(packet.cmd);
     5f4:	8c 2f       	mov	r24, r28
     5f6:	0e 94 ed 01 	call	0x3da	; 0x3da <update_lcd>
}
     5fa:	df 91       	pop	r29
     5fc:	cf 91       	pop	r28
     5fe:	08 95       	ret

00000600 <main>:


int main(void) {
	system_init();
     600:	0e 94 53 00 	call	0xa6	; 0xa6 <system_init>

	while (1) {
		
	checkSensorsState();
     604:	0e 94 b2 02 	call	0x564	; 0x564 <_Z17checkSensorsStatev>
	
		
	if (sensorStates != previousSensorStates) {
     608:	80 91 54 01 	lds	r24, 0x0154	; 0x800154 <_ZL12sensorStates>
     60c:	90 91 00 01 	lds	r25, 0x0100	; 0x800100 <__DATA_REGION_ORIGIN__>
     610:	89 17       	cp	r24, r25
     612:	21 f0       	breq	.+8      	; 0x61c <main+0x1c>
		previousSensorStates = sensorStates;
     614:	80 93 00 01 	sts	0x0100, r24	; 0x800100 <__DATA_REGION_ORIGIN__>
		print_triggered_sensor(sensorStates);
     618:	0e 94 22 02 	call	0x444	; 0x444 <print_triggered_sensor>
	}		
			
		UART_Packet packet = UART_receive_full_packet();
     61c:	0e 94 50 05 	call	0xaa0	; 0xaa0 <UART_receive_full_packet>
		process_packet(packet);
     620:	0e 94 d3 02 	call	0x5a6	; 0x5a6 <_Z14process_packet11UART_Packet>

		processPWMUp();  // обрабатываем плавный разгон	
     624:	0e 94 64 03 	call	0x6c8	; 0x6c8 <processPWMUp>
			
		if (routeSetupInProgress) {
     628:	80 91 4e 01 	lds	r24, 0x014E	; 0x80014e <__data_end>
     62c:	88 23       	and	r24, r24
     62e:	51 f3       	breq	.-44     	; 0x604 <main+0x4>
			activate_route_non_blocking(SelectedTable);
     630:	80 91 51 01 	lds	r24, 0x0151	; 0x800151 <SelectedTable>
     634:	0e 94 a7 03 	call	0x74e	; 0x74e <activate_route_non_blocking>


int main(void) {
	system_init();

	while (1) {
     638:	e5 cf       	rjmp	.-54     	; 0x604 <main+0x4>

0000063a <initPWM>:
static uint32_t pwmLastTick = 0;

// Инициализация ШИМ на PB1 (OC1A) с 10-битной разрядностью и частотой 20 кГц
void initPWM() {

	DDRB |= (1 << PWM_PIN);  // Настраиваем PB1 как выход
     63a:	84 b1       	in	r24, 0x04	; 4
     63c:	82 60       	ori	r24, 0x02	; 2
     63e:	84 b9       	out	0x04, r24	; 4
	DDRD |= (1 << PWM_SWITCH_PIN);
     640:	8a b1       	in	r24, 0x0a	; 10
     642:	80 64       	ori	r24, 0x40	; 64
     644:	8a b9       	out	0x0a, r24	; 10

	// Включаем 8-битный Fast PWM
	TCCR1A = (1 << COM1A1) | (1 << WGM10);  // 8-bit
     646:	81 e8       	ldi	r24, 0x81	; 129
     648:	80 93 80 00 	sts	0x0080, r24	; 0x800080 <__TEXT_REGION_LENGTH__+0x7f8080>
	TCCR1B = (1 << WGM12) | (1 << CS10);   // Fast PWM, без делителя
     64c:	89 e0       	ldi	r24, 0x09	; 9
     64e:	80 93 81 00 	sts	0x0081, r24	; 0x800081 <__TEXT_REGION_LENGTH__+0x7f8081>

	OCR1A = 0;  // Стартовое значение
     652:	10 92 89 00 	sts	0x0089, r1	; 0x800089 <__TEXT_REGION_LENGTH__+0x7f8089>
     656:	10 92 88 00 	sts	0x0088, r1	; 0x800088 <__TEXT_REGION_LENGTH__+0x7f8088>
     65a:	08 95       	ret

0000065c <enablePWM>:
}

void enablePWM() {
	OCR1A = 0; // ? на всякий случай	
     65c:	10 92 89 00 	sts	0x0089, r1	; 0x800089 <__TEXT_REGION_LENGTH__+0x7f8089>
     660:	10 92 88 00 	sts	0x0088, r1	; 0x800088 <__TEXT_REGION_LENGTH__+0x7f8088>
	TCCR1A |= (1 << COM1A1); // Включаем выход ШИМ
     664:	e0 e8       	ldi	r30, 0x80	; 128
     666:	f0 e0       	ldi	r31, 0x00	; 0
     668:	80 81       	ld	r24, Z
     66a:	80 68       	ori	r24, 0x80	; 128
     66c:	80 83       	st	Z, r24
	DDRB |= (1 << PWM_PIN);  // Устанавливаем пин как выход
     66e:	84 b1       	in	r24, 0x04	; 4
     670:	82 60       	ori	r24, 0x02	; 2
     672:	84 b9       	out	0x04, r24	; 4
     674:	08 95       	ret

00000676 <disablePWM>:
}

void disablePWM() {
	OCR1A = 0;
     676:	10 92 89 00 	sts	0x0089, r1	; 0x800089 <__TEXT_REGION_LENGTH__+0x7f8089>
     67a:	10 92 88 00 	sts	0x0088, r1	; 0x800088 <__TEXT_REGION_LENGTH__+0x7f8088>
	TCCR1A &= ~(1 << COM1A1); // Отключаем выход ШИМ
     67e:	e0 e8       	ldi	r30, 0x80	; 128
     680:	f0 e0       	ldi	r31, 0x00	; 0
     682:	80 81       	ld	r24, Z
     684:	8f 77       	andi	r24, 0x7F	; 127
     686:	80 83       	st	Z, r24
	PORTB &= ~(1 << PWM_PIN); // Принудительно ставим 0
     688:	85 b1       	in	r24, 0x05	; 5
     68a:	8d 7f       	andi	r24, 0xFD	; 253
     68c:	85 b9       	out	0x05, r24	; 5
     68e:	08 95       	ret

00000690 <startPWMUp>:
}

// Soft Start
void startPWMUp() {
	currentDuty = 0;
     690:	10 92 5a 01 	sts	0x015A, r1	; 0x80015a <currentDuty+0x1>
     694:	10 92 59 01 	sts	0x0159, r1	; 0x800159 <currentDuty>
	OCR1A = 0;          // ? ОБЯЗАТЕЛЬНО, иначе будет всплеск
     698:	10 92 89 00 	sts	0x0089, r1	; 0x800089 <__TEXT_REGION_LENGTH__+0x7f8089>
     69c:	10 92 88 00 	sts	0x0088, r1	; 0x800088 <__TEXT_REGION_LENGTH__+0x7f8088>
	enablePWM();
     6a0:	0e 94 2e 03 	call	0x65c	; 0x65c <enablePWM>
	pwmLastTick = rail_switch_step_counter;
     6a4:	80 91 62 01 	lds	r24, 0x0162	; 0x800162 <rail_switch_step_counter>
     6a8:	90 91 63 01 	lds	r25, 0x0163	; 0x800163 <rail_switch_step_counter+0x1>
     6ac:	a0 e0       	ldi	r26, 0x00	; 0
     6ae:	b0 e0       	ldi	r27, 0x00	; 0
     6b0:	80 93 55 01 	sts	0x0155, r24	; 0x800155 <pwmLastTick>
     6b4:	90 93 56 01 	sts	0x0156, r25	; 0x800156 <pwmLastTick+0x1>
     6b8:	a0 93 57 01 	sts	0x0157, r26	; 0x800157 <pwmLastTick+0x2>
     6bc:	b0 93 58 01 	sts	0x0158, r27	; 0x800158 <pwmLastTick+0x3>
	pwmIncreasing = 1;	
     6c0:	81 e0       	ldi	r24, 0x01	; 1
     6c2:	80 93 5b 01 	sts	0x015B, r24	; 0x80015b <pwmIncreasing>
     6c6:	08 95       	ret

000006c8 <processPWMUp>:
}



void processPWMUp() {
	if (!pwmIncreasing) return;
     6c8:	80 91 5b 01 	lds	r24, 0x015B	; 0x80015b <pwmIncreasing>
     6cc:	88 23       	and	r24, r24
     6ce:	d9 f1       	breq	.+118    	; 0x746 <processPWMUp+0x7e>

	if ((rail_switch_step_counter - pwmLastTick) >= PWM_DELAY) {
     6d0:	80 91 62 01 	lds	r24, 0x0162	; 0x800162 <rail_switch_step_counter>
     6d4:	90 91 63 01 	lds	r25, 0x0163	; 0x800163 <rail_switch_step_counter+0x1>
     6d8:	a0 e0       	ldi	r26, 0x00	; 0
     6da:	b0 e0       	ldi	r27, 0x00	; 0
     6dc:	40 91 55 01 	lds	r20, 0x0155	; 0x800155 <pwmLastTick>
     6e0:	50 91 56 01 	lds	r21, 0x0156	; 0x800156 <pwmLastTick+0x1>
     6e4:	60 91 57 01 	lds	r22, 0x0157	; 0x800157 <pwmLastTick+0x2>
     6e8:	70 91 58 01 	lds	r23, 0x0158	; 0x800158 <pwmLastTick+0x3>
     6ec:	84 1b       	sub	r24, r20
     6ee:	95 0b       	sbc	r25, r21
     6f0:	a6 0b       	sbc	r26, r22
     6f2:	b7 0b       	sbc	r27, r23
     6f4:	84 36       	cpi	r24, 0x64	; 100
     6f6:	91 05       	cpc	r25, r1
     6f8:	a1 05       	cpc	r26, r1
     6fa:	b1 05       	cpc	r27, r1
     6fc:	20 f1       	brcs	.+72     	; 0x746 <processPWMUp+0x7e>
		pwmLastTick = rail_switch_step_counter;
     6fe:	80 91 62 01 	lds	r24, 0x0162	; 0x800162 <rail_switch_step_counter>
     702:	90 91 63 01 	lds	r25, 0x0163	; 0x800163 <rail_switch_step_counter+0x1>
     706:	a0 e0       	ldi	r26, 0x00	; 0
     708:	b0 e0       	ldi	r27, 0x00	; 0
     70a:	80 93 55 01 	sts	0x0155, r24	; 0x800155 <pwmLastTick>
     70e:	90 93 56 01 	sts	0x0156, r25	; 0x800156 <pwmLastTick+0x1>
     712:	a0 93 57 01 	sts	0x0157, r26	; 0x800157 <pwmLastTick+0x2>
     716:	b0 93 58 01 	sts	0x0158, r27	; 0x800158 <pwmLastTick+0x3>

		if (currentDuty <= PWM_MAX) {
     71a:	80 91 59 01 	lds	r24, 0x0159	; 0x800159 <currentDuty>
     71e:	90 91 5a 01 	lds	r25, 0x015A	; 0x80015a <currentDuty+0x1>
     722:	8f 3f       	cpi	r24, 0xFF	; 255
     724:	91 05       	cpc	r25, r1
     726:	09 f0       	breq	.+2      	; 0x72a <processPWMUp+0x62>
     728:	60 f4       	brcc	.+24     	; 0x742 <processPWMUp+0x7a>
			OCR1A = currentDuty++;
     72a:	9c 01       	movw	r18, r24
     72c:	2f 5f       	subi	r18, 0xFF	; 255
     72e:	3f 4f       	sbci	r19, 0xFF	; 255
     730:	30 93 5a 01 	sts	0x015A, r19	; 0x80015a <currentDuty+0x1>
     734:	20 93 59 01 	sts	0x0159, r18	; 0x800159 <currentDuty>
     738:	90 93 89 00 	sts	0x0089, r25	; 0x800089 <__TEXT_REGION_LENGTH__+0x7f8089>
     73c:	80 93 88 00 	sts	0x0088, r24	; 0x800088 <__TEXT_REGION_LENGTH__+0x7f8088>
     740:	08 95       	ret
			} else {
			//MoveLocoForward();         // запускаем движение вперед (включает PWM)
			pwmIncreasing = 0;
     742:	10 92 5b 01 	sts	0x015B, r1	; 0x80015b <pwmIncreasing>
     746:	08 95       	ret

00000748 <reset_route_state>:
	ROUTE_TO_TABLE_8,
	ROUTE_TO_TABLE_9
};

void reset_route_state(void) {
	initialized = 0;
     748:	10 92 61 01 	sts	0x0161, r1	; 0x800161 <initialized>
     74c:	08 95       	ret

0000074e <activate_route_non_blocking>:
}

void activate_route_non_blocking(uint8_t tableIndex) {
     74e:	0f 93       	push	r16
     750:	1f 93       	push	r17
     752:	cf 93       	push	r28
     754:	df 93       	push	r29
     756:	00 d0       	rcall	.+0      	; 0x758 <activate_route_non_blocking+0xa>
     758:	1f 92       	push	r1
     75a:	cd b7       	in	r28, 0x3d	; 61
     75c:	de b7       	in	r29, 0x3e	; 62
	
		tableIndex = tableIndex - 1;
     75e:	6f ef       	ldi	r22, 0xFF	; 255
     760:	68 0f       	add	r22, r24
	
		static uint32_t lastTick = 0;
		static uint8_t currentBit = 0;  // Индекс текущего проверяемого бита
		uint8_t shiftData[NUM_OF_74HC595] = {0};
     762:	19 82       	std	Y+1, r1	; 0x01
     764:	1a 82       	std	Y+2, r1	; 0x02
     766:	1b 82       	std	Y+3, r1	; 0x03

		if (!initialized) {
     768:	80 91 61 01 	lds	r24, 0x0161	; 0x800161 <initialized>
     76c:	81 11       	cpse	r24, r1
     76e:	13 c0       	rjmp	.+38     	; 0x796 <activate_route_non_blocking+0x48>
			currentBit = 0;                  // Начинаем с первого бита
     770:	10 92 60 01 	sts	0x0160, r1	; 0x800160 <currentBit.1792>
			lastTick = rail_switch_step_counter;
     774:	80 91 62 01 	lds	r24, 0x0162	; 0x800162 <rail_switch_step_counter>
     778:	90 91 63 01 	lds	r25, 0x0163	; 0x800163 <rail_switch_step_counter+0x1>
     77c:	a0 e0       	ldi	r26, 0x00	; 0
     77e:	b0 e0       	ldi	r27, 0x00	; 0
     780:	80 93 5c 01 	sts	0x015C, r24	; 0x80015c <lastTick.1791>
     784:	90 93 5d 01 	sts	0x015D, r25	; 0x80015d <lastTick.1791+0x1>
     788:	a0 93 5e 01 	sts	0x015E, r26	; 0x80015e <lastTick.1791+0x2>
     78c:	b0 93 5f 01 	sts	0x015F, r27	; 0x80015f <lastTick.1791+0x3>
			initialized = 1;
     790:	81 e0       	ldi	r24, 0x01	; 1
     792:	80 93 61 01 	sts	0x0161, r24	; 0x800161 <initialized>
		}

	if ((rail_switch_step_counter - lastTick) >= 500) {
     796:	80 91 62 01 	lds	r24, 0x0162	; 0x800162 <rail_switch_step_counter>
     79a:	90 91 63 01 	lds	r25, 0x0163	; 0x800163 <rail_switch_step_counter+0x1>
     79e:	a0 e0       	ldi	r26, 0x00	; 0
     7a0:	b0 e0       	ldi	r27, 0x00	; 0
     7a2:	00 91 5c 01 	lds	r16, 0x015C	; 0x80015c <lastTick.1791>
     7a6:	10 91 5d 01 	lds	r17, 0x015D	; 0x80015d <lastTick.1791+0x1>
     7aa:	20 91 5e 01 	lds	r18, 0x015E	; 0x80015e <lastTick.1791+0x2>
     7ae:	30 91 5f 01 	lds	r19, 0x015F	; 0x80015f <lastTick.1791+0x3>
     7b2:	80 1b       	sub	r24, r16
     7b4:	91 0b       	sbc	r25, r17
     7b6:	a2 0b       	sbc	r26, r18
     7b8:	b3 0b       	sbc	r27, r19
     7ba:	84 3f       	cpi	r24, 0xF4	; 244
     7bc:	91 40       	sbci	r25, 0x01	; 1
     7be:	a1 05       	cpc	r26, r1
     7c0:	b1 05       	cpc	r27, r1
     7c2:	08 f4       	brcc	.+2      	; 0x7c6 <activate_route_non_blocking+0x78>
     7c4:	50 c0       	rjmp	.+160    	; 0x866 <__DATA_REGION_LENGTH__+0x66>
		lastTick = rail_switch_step_counter;
     7c6:	80 91 62 01 	lds	r24, 0x0162	; 0x800162 <rail_switch_step_counter>
     7ca:	90 91 63 01 	lds	r25, 0x0163	; 0x800163 <rail_switch_step_counter+0x1>
     7ce:	a0 e0       	ldi	r26, 0x00	; 0
     7d0:	b0 e0       	ldi	r27, 0x00	; 0
     7d2:	80 93 5c 01 	sts	0x015C, r24	; 0x80015c <lastTick.1791>
     7d6:	90 93 5d 01 	sts	0x015D, r25	; 0x80015d <lastTick.1791+0x1>
     7da:	a0 93 5e 01 	sts	0x015E, r26	; 0x80015e <lastTick.1791+0x2>
     7de:	b0 93 5f 01 	sts	0x015F, r27	; 0x80015f <lastTick.1791+0x3>

		// Пропускаем нули
		while (currentBit < 16 && !(routeMasks[tableIndex] & (1 << currentBit))) {
     7e2:	04 c0       	rjmp	.+8      	; 0x7ec <activate_route_non_blocking+0x9e>
			currentBit++;
     7e4:	81 e0       	ldi	r24, 0x01	; 1
     7e6:	89 0f       	add	r24, r25
     7e8:	80 93 60 01 	sts	0x0160, r24	; 0x800160 <currentBit.1792>

	if ((rail_switch_step_counter - lastTick) >= 500) {
		lastTick = rail_switch_step_counter;

		// Пропускаем нули
		while (currentBit < 16 && !(routeMasks[tableIndex] & (1 << currentBit))) {
     7ec:	90 91 60 01 	lds	r25, 0x0160	; 0x800160 <currentBit.1792>
     7f0:	90 31       	cpi	r25, 0x10	; 16
     7f2:	a0 f4       	brcc	.+40     	; 0x81c <__DATA_REGION_LENGTH__+0x1c>
     7f4:	e6 2f       	mov	r30, r22
     7f6:	f0 e0       	ldi	r31, 0x00	; 0
     7f8:	ee 0f       	add	r30, r30
     7fa:	ff 1f       	adc	r31, r31
     7fc:	e4 5c       	subi	r30, 0xC4	; 196
     7fe:	fe 4f       	sbci	r31, 0xFE	; 254
     800:	40 81       	ld	r20, Z
     802:	51 81       	ldd	r21, Z+1	; 0x01
     804:	21 e0       	ldi	r18, 0x01	; 1
     806:	30 e0       	ldi	r19, 0x00	; 0
     808:	09 2e       	mov	r0, r25
     80a:	02 c0       	rjmp	.+4      	; 0x810 <__DATA_REGION_LENGTH__+0x10>
     80c:	22 0f       	add	r18, r18
     80e:	33 1f       	adc	r19, r19
     810:	0a 94       	dec	r0
     812:	e2 f7       	brpl	.-8      	; 0x80c <__DATA_REGION_LENGTH__+0xc>
     814:	24 23       	and	r18, r20
     816:	35 23       	and	r19, r21
     818:	23 2b       	or	r18, r19
     81a:	21 f3       	breq	.-56     	; 0x7e4 <activate_route_non_blocking+0x96>
			currentBit++;
		}

		if (currentBit < 16) {
     81c:	90 31       	cpi	r25, 0x10	; 16
     81e:	e8 f4       	brcc	.+58     	; 0x85a <__DATA_REGION_LENGTH__+0x5a>
			if (currentBit < 8) {
     820:	98 30       	cpi	r25, 0x08	; 8
     822:	38 f4       	brcc	.+14     	; 0x832 <__DATA_REGION_LENGTH__+0x32>
				shiftData[0] |= (1 << currentBit);
     824:	81 e0       	ldi	r24, 0x01	; 1
     826:	01 c0       	rjmp	.+2      	; 0x82a <__DATA_REGION_LENGTH__+0x2a>
     828:	88 0f       	add	r24, r24
     82a:	9a 95       	dec	r25
     82c:	ea f7       	brpl	.-6      	; 0x828 <__DATA_REGION_LENGTH__+0x28>
     82e:	89 83       	std	Y+1, r24	; 0x01
     830:	09 c0       	rjmp	.+18     	; 0x844 <__DATA_REGION_LENGTH__+0x44>
				} else {
				shiftData[1] |= (1 << (currentBit - 8));
     832:	89 2f       	mov	r24, r25
     834:	90 e0       	ldi	r25, 0x00	; 0
     836:	08 97       	sbiw	r24, 0x08	; 8
     838:	91 e0       	ldi	r25, 0x01	; 1
     83a:	01 c0       	rjmp	.+2      	; 0x83e <__DATA_REGION_LENGTH__+0x3e>
     83c:	99 0f       	add	r25, r25
     83e:	8a 95       	dec	r24
     840:	ea f7       	brpl	.-6      	; 0x83c <__DATA_REGION_LENGTH__+0x3c>
     842:	9a 83       	std	Y+2, r25	; 0x02
			}
			shiftOutMultiple(shiftData, NUM_OF_74HC595);
     844:	63 e0       	ldi	r22, 0x03	; 3
     846:	ce 01       	movw	r24, r28
     848:	01 96       	adiw	r24, 0x01	; 1
     84a:	0e 94 8a 04 	call	0x914	; 0x914 <shiftOutMultiple>
			currentBit++;
     84e:	80 91 60 01 	lds	r24, 0x0160	; 0x800160 <currentBit.1792>
     852:	8f 5f       	subi	r24, 0xFF	; 255
     854:	80 93 60 01 	sts	0x0160, r24	; 0x800160 <currentBit.1792>
     858:	06 c0       	rjmp	.+12     	; 0x866 <__DATA_REGION_LENGTH__+0x66>
			} 
			else {
			MoveLocoForward();
     85a:	0e 94 82 02 	call	0x504	; 0x504 <MoveLocoForward>
			routeSetupInProgress = 0;
     85e:	10 92 4e 01 	sts	0x014E, r1	; 0x80014e <__data_end>
			initialized = 0;
     862:	10 92 61 01 	sts	0x0161, r1	; 0x800161 <initialized>
		}
	}
}
     866:	0f 90       	pop	r0
     868:	0f 90       	pop	r0
     86a:	0f 90       	pop	r0
     86c:	df 91       	pop	r29
     86e:	cf 91       	pop	r28
     870:	1f 91       	pop	r17
     872:	0f 91       	pop	r16
     874:	08 95       	ret

00000876 <read_74HC165>:
}

uint8_t read_74HC165(void) {
	uint8_t data = 0;

	PORTD &= ~(1 << LATCH_74HC165);
     876:	8b b1       	in	r24, 0x0b	; 11
     878:	8f 7b       	andi	r24, 0xBF	; 191
     87a:	8b b9       	out	0x0b, r24	; 11
	#else
		//round up by default
		__ticks_dc = (uint32_t)(ceil(fabs(__tmp)));
	#endif

	__builtin_avr_delay_cycles(__ticks_dc);
     87c:	00 c0       	rjmp	.+0      	; 0x87e <read_74HC165+0x8>
     87e:	00 c0       	rjmp	.+0      	; 0x880 <read_74HC165+0xa>
     880:	00 00       	nop
	_delay_us(5);
	PORTD |= (1 << LATCH_74HC165);
     882:	8b b1       	in	r24, 0x0b	; 11
     884:	80 64       	ori	r24, 0x40	; 64
     886:	8b b9       	out	0x0b, r24	; 11

	for (uint8_t i = 0; i < NUM_BITS_74HC595; i++) {
     888:	20 e0       	ldi	r18, 0x00	; 0
	uint8_t initialData[NUM_OF_74HC595] = {0};
	shiftOutMultiple(initialData, NUM_OF_74HC595);
}

uint8_t read_74HC165(void) {
	uint8_t data = 0;
     88a:	80 e0       	ldi	r24, 0x00	; 0

	PORTD &= ~(1 << LATCH_74HC165);
	_delay_us(5);
	PORTD |= (1 << LATCH_74HC165);

	for (uint8_t i = 0; i < NUM_BITS_74HC595; i++) {
     88c:	10 c0       	rjmp	.+32     	; 0x8ae <read_74HC165+0x38>
		data <<= 1;
     88e:	88 0f       	add	r24, r24
		PORTD &= ~(1 << CLOCK_74HC165);
     890:	9b b1       	in	r25, 0x0b	; 11
     892:	9f 7d       	andi	r25, 0xDF	; 223
     894:	9b b9       	out	0x0b, r25	; 11
     896:	00 c0       	rjmp	.+0      	; 0x898 <read_74HC165+0x22>
     898:	00 c0       	rjmp	.+0      	; 0x89a <read_74HC165+0x24>
     89a:	00 00       	nop
		_delay_us(5);

		if (PIND & (1 << DATA_74HC165)) {
     89c:	4f 99       	sbic	0x09, 7	; 9
			data |= 1;
     89e:	81 60       	ori	r24, 0x01	; 1
		}

		PORTD |= (1 << CLOCK_74HC165);
     8a0:	9b b1       	in	r25, 0x0b	; 11
     8a2:	90 62       	ori	r25, 0x20	; 32
     8a4:	9b b9       	out	0x0b, r25	; 11
     8a6:	00 c0       	rjmp	.+0      	; 0x8a8 <read_74HC165+0x32>
     8a8:	00 c0       	rjmp	.+0      	; 0x8aa <read_74HC165+0x34>
     8aa:	00 00       	nop

	PORTD &= ~(1 << LATCH_74HC165);
	_delay_us(5);
	PORTD |= (1 << LATCH_74HC165);

	for (uint8_t i = 0; i < NUM_BITS_74HC595; i++) {
     8ac:	2f 5f       	subi	r18, 0xFF	; 255
     8ae:	28 30       	cpi	r18, 0x08	; 8
     8b0:	70 f3       	brcs	.-36     	; 0x88e <read_74HC165+0x18>
		PORTD |= (1 << CLOCK_74HC165);
		_delay_us(5);
	}

	return data;
}
     8b2:	08 95       	ret

000008b4 <init_74HC595_ports>:

void init_74HC595_ports(void) {
	DDRD |= (1 << DATA_74HC595) | (1 << CLOCK_74HC595) | (1 << LATCH_74HC595);
     8b4:	8a b1       	in	r24, 0x0a	; 10
     8b6:	8c 61       	ori	r24, 0x1C	; 28
     8b8:	8a b9       	out	0x0a, r24	; 10
	PORTD &= ~((1 << DATA_74HC595) | (1 << CLOCK_74HC595) | (1 << LATCH_74HC595));
     8ba:	8b b1       	in	r24, 0x0b	; 11
     8bc:	83 7e       	andi	r24, 0xE3	; 227
     8be:	8b b9       	out	0x0b, r24	; 11
     8c0:	08 95       	ret

000008c2 <shiftOut>:
}

void shiftOut(uint8_t data) {
	for (uint8_t i = 0; i < NUM_BITS_74HC595; i++) {
     8c2:	90 e0       	ldi	r25, 0x00	; 0
     8c4:	1c c0       	rjmp	.+56     	; 0x8fe <shiftOut+0x3c>
		if (data & (1 << (NUM_BITS_74HC595 - 1 - i))) {
     8c6:	47 e0       	ldi	r20, 0x07	; 7
     8c8:	50 e0       	ldi	r21, 0x00	; 0
     8ca:	49 1b       	sub	r20, r25
     8cc:	51 09       	sbc	r21, r1
     8ce:	28 2f       	mov	r18, r24
     8d0:	30 e0       	ldi	r19, 0x00	; 0
     8d2:	02 c0       	rjmp	.+4      	; 0x8d8 <shiftOut+0x16>
     8d4:	35 95       	asr	r19
     8d6:	27 95       	ror	r18
     8d8:	4a 95       	dec	r20
     8da:	e2 f7       	brpl	.-8      	; 0x8d4 <shiftOut+0x12>
     8dc:	20 ff       	sbrs	r18, 0
     8de:	04 c0       	rjmp	.+8      	; 0x8e8 <shiftOut+0x26>
			PORTD |= (1 << DATA_74HC595);
     8e0:	2b b1       	in	r18, 0x0b	; 11
     8e2:	24 60       	ori	r18, 0x04	; 4
     8e4:	2b b9       	out	0x0b, r18	; 11
     8e6:	03 c0       	rjmp	.+6      	; 0x8ee <shiftOut+0x2c>
			} else {
			PORTD &= ~(1 << DATA_74HC595);
     8e8:	2b b1       	in	r18, 0x0b	; 11
     8ea:	2b 7f       	andi	r18, 0xFB	; 251
     8ec:	2b b9       	out	0x0b, r18	; 11
		}

		PORTD |= (1 << CLOCK_74HC595);
     8ee:	2b b1       	in	r18, 0x0b	; 11
     8f0:	28 60       	ori	r18, 0x08	; 8
     8f2:	2b b9       	out	0x0b, r18	; 11
     8f4:	00 00       	nop
		_delay_us(1);
		PORTD &= ~(1 << CLOCK_74HC595);
     8f6:	2b b1       	in	r18, 0x0b	; 11
     8f8:	27 7f       	andi	r18, 0xF7	; 247
     8fa:	2b b9       	out	0x0b, r18	; 11
	DDRD |= (1 << DATA_74HC595) | (1 << CLOCK_74HC595) | (1 << LATCH_74HC595);
	PORTD &= ~((1 << DATA_74HC595) | (1 << CLOCK_74HC595) | (1 << LATCH_74HC595));
}

void shiftOut(uint8_t data) {
	for (uint8_t i = 0; i < NUM_BITS_74HC595; i++) {
     8fc:	9f 5f       	subi	r25, 0xFF	; 255
     8fe:	98 30       	cpi	r25, 0x08	; 8
     900:	10 f3       	brcs	.-60     	; 0x8c6 <shiftOut+0x4>

		PORTD |= (1 << CLOCK_74HC595);
		_delay_us(1);
		PORTD &= ~(1 << CLOCK_74HC595);
	}
}
     902:	08 95       	ret

00000904 <latchData>:

void latchData(void) {
	PORTD |= (1 << LATCH_74HC595);
     904:	8b b1       	in	r24, 0x0b	; 11
     906:	80 61       	ori	r24, 0x10	; 16
     908:	8b b9       	out	0x0b, r24	; 11
     90a:	00 00       	nop
	_delay_us(1);
	PORTD &= ~(1 << LATCH_74HC595);
     90c:	8b b1       	in	r24, 0x0b	; 11
     90e:	8f 7e       	andi	r24, 0xEF	; 239
     910:	8b b9       	out	0x0b, r24	; 11
     912:	08 95       	ret

00000914 <shiftOutMultiple>:
}

void shiftOutMultiple(uint8_t *data, uint8_t count) {
     914:	0f 93       	push	r16
     916:	1f 93       	push	r17
     918:	cf 93       	push	r28
     91a:	df 93       	push	r29
     91c:	8c 01       	movw	r16, r24
     91e:	d6 2f       	mov	r29, r22
	for (uint8_t i = 0; i < count; i++) {
     920:	c0 e0       	ldi	r28, 0x00	; 0
     922:	07 c0       	rjmp	.+14     	; 0x932 <shiftOutMultiple+0x1e>
		shiftOut(data[i]);
     924:	f8 01       	movw	r30, r16
     926:	ec 0f       	add	r30, r28
     928:	f1 1d       	adc	r31, r1
     92a:	80 81       	ld	r24, Z
     92c:	0e 94 61 04 	call	0x8c2	; 0x8c2 <shiftOut>
	_delay_us(1);
	PORTD &= ~(1 << LATCH_74HC595);
}

void shiftOutMultiple(uint8_t *data, uint8_t count) {
	for (uint8_t i = 0; i < count; i++) {
     930:	cf 5f       	subi	r28, 0xFF	; 255
     932:	cd 17       	cp	r28, r29
     934:	b8 f3       	brcs	.-18     	; 0x924 <shiftOutMultiple+0x10>
		shiftOut(data[i]);
	}
	latchData();
     936:	0e 94 82 04 	call	0x904	; 0x904 <latchData>
}
     93a:	df 91       	pop	r29
     93c:	cf 91       	pop	r28
     93e:	1f 91       	pop	r17
     940:	0f 91       	pop	r16
     942:	08 95       	ret

00000944 <init_74HC165_ports>:
#include "shift_registers.h"
#include "config.h"

void init_74HC165_ports(void) {
     944:	cf 93       	push	r28
     946:	df 93       	push	r29
     948:	00 d0       	rcall	.+0      	; 0x94a <init_74HC165_ports+0x6>
     94a:	1f 92       	push	r1
     94c:	cd b7       	in	r28, 0x3d	; 61
     94e:	de b7       	in	r29, 0x3e	; 62
	DDRD |= (1 << CLOCK_74HC165) | (1 << LATCH_74HC165); // PD5 ? PD6 - ??????
     950:	8a b1       	in	r24, 0x0a	; 10
     952:	80 66       	ori	r24, 0x60	; 96
     954:	8a b9       	out	0x0a, r24	; 10
	DDRD &= ~(1 << DATA_74HC165);                        // PD7 - ????
     956:	8a b1       	in	r24, 0x0a	; 10
     958:	8f 77       	andi	r24, 0x7F	; 127
     95a:	8a b9       	out	0x0a, r24	; 10
	PORTD &= ~(1 << DATA_74HC165);
     95c:	8b b1       	in	r24, 0x0b	; 11
     95e:	8f 77       	andi	r24, 0x7F	; 127
     960:	8b b9       	out	0x0b, r24	; 11
	
	uint8_t initialData[NUM_OF_74HC595] = {0};
     962:	19 82       	std	Y+1, r1	; 0x01
     964:	1a 82       	std	Y+2, r1	; 0x02
     966:	1b 82       	std	Y+3, r1	; 0x03
	shiftOutMultiple(initialData, NUM_OF_74HC595);
     968:	63 e0       	ldi	r22, 0x03	; 3
     96a:	ce 01       	movw	r24, r28
     96c:	01 96       	adiw	r24, 0x01	; 1
     96e:	0e 94 8a 04 	call	0x914	; 0x914 <shiftOutMultiple>
}
     972:	0f 90       	pop	r0
     974:	0f 90       	pop	r0
     976:	0f 90       	pop	r0
     978:	df 91       	pop	r29
     97a:	cf 91       	pop	r28
     97c:	08 95       	ret

0000097e <timer0_init>:

// Нужно вызвать функцию process_route(), которая определена в другом файле.
extern void process_route(void);

void timer0_init(void) {
	TCCR0A |= (1 << WGM01); // CTC Mode
     97e:	84 b5       	in	r24, 0x24	; 36
     980:	82 60       	ori	r24, 0x02	; 2
     982:	84 bd       	out	0x24, r24	; 36
	TCCR0B |= (1 << CS01) | (1 << CS00); // Предделитель 64
     984:	85 b5       	in	r24, 0x25	; 37
     986:	83 60       	ori	r24, 0x03	; 3
     988:	85 bd       	out	0x25, r24	; 37
	OCR0A = 249; // Прерывание раз в 1 мс
     98a:	89 ef       	ldi	r24, 0xF9	; 249
     98c:	87 bd       	out	0x27, r24	; 39
	TIMSK0 |= (1 << OCIE0A); // Включаем прерывание по совпадению
     98e:	ee e6       	ldi	r30, 0x6E	; 110
     990:	f0 e0       	ldi	r31, 0x00	; 0
     992:	80 81       	ld	r24, Z
     994:	82 60       	ori	r24, 0x02	; 2
     996:	80 83       	st	Z, r24

	// Разрешаем прерывание по совпадению с OCR0A
	TIMSK0 |= (1 << OCIE0A);
     998:	80 81       	ld	r24, Z
     99a:	82 60       	ori	r24, 0x02	; 2
     99c:	80 83       	st	Z, r24
     99e:	08 95       	ret

000009a0 <__vector_14>:
}

// Обработчик прерывания по совпадению с OCR0A
ISR(TIMER0_COMPA_vect) {
     9a0:	1f 92       	push	r1
     9a2:	0f 92       	push	r0
     9a4:	0f b6       	in	r0, 0x3f	; 63
     9a6:	0f 92       	push	r0
     9a8:	11 24       	eor	r1, r1
     9aa:	8f 93       	push	r24
     9ac:	9f 93       	push	r25
	rail_switch_step_counter++;    // Увеличиваем счётчик каждые ~5 мс
     9ae:	80 91 62 01 	lds	r24, 0x0162	; 0x800162 <rail_switch_step_counter>
     9b2:	90 91 63 01 	lds	r25, 0x0163	; 0x800163 <rail_switch_step_counter+0x1>
     9b6:	01 96       	adiw	r24, 0x01	; 1
     9b8:	90 93 63 01 	sts	0x0163, r25	; 0x800163 <rail_switch_step_counter+0x1>
     9bc:	80 93 62 01 	sts	0x0162, r24	; 0x800162 <rail_switch_step_counter>
}
     9c0:	9f 91       	pop	r25
     9c2:	8f 91       	pop	r24
     9c4:	0f 90       	pop	r0
     9c6:	0f be       	out	0x3f, r0	; 63
     9c8:	0f 90       	pop	r0
     9ca:	1f 90       	pop	r1
     9cc:	18 95       	reti

000009ce <UART_init>:
#include <stddef.h>

#define TIMEOUT_MS 100  // Таймаут ожидания в миллисекундах

void UART_init(void) {
	UBRR0H = (UBRR_VALUE >> 8);
     9ce:	10 92 c5 00 	sts	0x00C5, r1	; 0x8000c5 <__TEXT_REGION_LENGTH__+0x7f80c5>
	UBRR0L = UBRR_VALUE;
     9d2:	87 e6       	ldi	r24, 0x67	; 103
     9d4:	80 93 c4 00 	sts	0x00C4, r24	; 0x8000c4 <__TEXT_REGION_LENGTH__+0x7f80c4>
	UCSR0B = (1 << TXEN0) | (1 << RXEN0);
     9d8:	88 e1       	ldi	r24, 0x18	; 24
     9da:	80 93 c1 00 	sts	0x00C1, r24	; 0x8000c1 <__TEXT_REGION_LENGTH__+0x7f80c1>
	UCSR0C = (1 << UCSZ01) | (1 << UCSZ00);
     9de:	86 e0       	ldi	r24, 0x06	; 6
     9e0:	80 93 c2 00 	sts	0x00C2, r24	; 0x8000c2 <__TEXT_REGION_LENGTH__+0x7f80c2>
     9e4:	08 95       	ret

000009e6 <UART_send>:
}

void UART_send(uint8_t data) {
	while (!(UCSR0A & (1 << UDRE0)));
     9e6:	90 91 c0 00 	lds	r25, 0x00C0	; 0x8000c0 <__TEXT_REGION_LENGTH__+0x7f80c0>
     9ea:	95 ff       	sbrs	r25, 5
     9ec:	fc cf       	rjmp	.-8      	; 0x9e6 <UART_send>
	UDR0 = data;
     9ee:	80 93 c6 00 	sts	0x00C6, r24	; 0x8000c6 <__TEXT_REGION_LENGTH__+0x7f80c6>
     9f2:	08 95       	ret

000009f4 <UART_receive>:
}

uint8_t UART_receive(void) {
	uint16_t timeout = TIMEOUT_MS * (F_CPU / 1000 / 64);
     9f4:	88 ea       	ldi	r24, 0xA8	; 168
     9f6:	91 e6       	ldi	r25, 0x61	; 97
	while (!(UCSR0A & (1 << RXC0))) {
     9f8:	02 c0       	rjmp	.+4      	; 0x9fe <UART_receive+0xa>
		if (--timeout == 0) {
     9fa:	01 97       	sbiw	r24, 0x01	; 1
     9fc:	39 f0       	breq	.+14     	; 0xa0c <UART_receive+0x18>
	UDR0 = data;
}

uint8_t UART_receive(void) {
	uint16_t timeout = TIMEOUT_MS * (F_CPU / 1000 / 64);
	while (!(UCSR0A & (1 << RXC0))) {
     9fe:	20 91 c0 00 	lds	r18, 0x00C0	; 0x8000c0 <__TEXT_REGION_LENGTH__+0x7f80c0>
     a02:	22 23       	and	r18, r18
     a04:	d4 f7       	brge	.-12     	; 0x9fa <UART_receive+0x6>
		if (--timeout == 0) {
			return 0xFF; // Ошибка: данные не пришли
		}
	}
	return UDR0;
     a06:	80 91 c6 00 	lds	r24, 0x00C6	; 0x8000c6 <__TEXT_REGION_LENGTH__+0x7f80c6>
     a0a:	08 95       	ret

uint8_t UART_receive(void) {
	uint16_t timeout = TIMEOUT_MS * (F_CPU / 1000 / 64);
	while (!(UCSR0A & (1 << RXC0))) {
		if (--timeout == 0) {
			return 0xFF; // Ошибка: данные не пришли
     a0c:	8f ef       	ldi	r24, 0xFF	; 255
		}
	}
	return UDR0;
}
     a0e:	08 95       	ret

00000a10 <crc8>:
	for (uint8_t i = 0; i < 6; i++) {
		UART_send(packet[i]);
	}
}

uint8_t crc8(const uint8_t *data, uint8_t len) {
     a10:	ac 01       	movw	r20, r24
	uint8_t crc = 0xFF;
	for (uint8_t i = 0; i < len; i++) {
     a12:	30 e0       	ldi	r19, 0x00	; 0
		UART_send(packet[i]);
	}
}

uint8_t crc8(const uint8_t *data, uint8_t len) {
	uint8_t crc = 0xFF;
     a14:	8f ef       	ldi	r24, 0xFF	; 255
	for (uint8_t i = 0; i < len; i++) {
     a16:	14 c0       	rjmp	.+40     	; 0xa40 <crc8+0x30>
		crc ^= data[i];
     a18:	fa 01       	movw	r30, r20
     a1a:	e3 0f       	add	r30, r19
     a1c:	f1 1d       	adc	r31, r1
     a1e:	90 81       	ld	r25, Z
     a20:	89 27       	eor	r24, r25
		for (uint8_t j = 0; j < 8; j++) {
     a22:	20 e0       	ldi	r18, 0x00	; 0
     a24:	0a c0       	rjmp	.+20     	; 0xa3a <crc8+0x2a>
			if (crc & 0x80)
     a26:	88 23       	and	r24, r24
     a28:	34 f4       	brge	.+12     	; 0xa36 <crc8+0x26>
			crc = (crc << 1) ^ 0x07;
     a2a:	90 e0       	ldi	r25, 0x00	; 0
     a2c:	88 0f       	add	r24, r24
     a2e:	99 1f       	adc	r25, r25
     a30:	97 e0       	ldi	r25, 0x07	; 7
     a32:	89 27       	eor	r24, r25
     a34:	01 c0       	rjmp	.+2      	; 0xa38 <crc8+0x28>
			else
			crc <<= 1;
     a36:	88 0f       	add	r24, r24

uint8_t crc8(const uint8_t *data, uint8_t len) {
	uint8_t crc = 0xFF;
	for (uint8_t i = 0; i < len; i++) {
		crc ^= data[i];
		for (uint8_t j = 0; j < 8; j++) {
     a38:	2f 5f       	subi	r18, 0xFF	; 255
     a3a:	28 30       	cpi	r18, 0x08	; 8
     a3c:	a0 f3       	brcs	.-24     	; 0xa26 <crc8+0x16>
	}
}

uint8_t crc8(const uint8_t *data, uint8_t len) {
	uint8_t crc = 0xFF;
	for (uint8_t i = 0; i < len; i++) {
     a3e:	3f 5f       	subi	r19, 0xFF	; 255
     a40:	36 17       	cp	r19, r22
     a42:	50 f3       	brcs	.-44     	; 0xa18 <crc8+0x8>
			else
			crc <<= 1;
		}
	}
	return crc;
}
     a44:	08 95       	ret

00000a46 <send_command>:
		}
	}
	return UDR0;
}

void send_command(uint8_t cmd, uint8_t table_id, uint8_t data) {
     a46:	1f 93       	push	r17
     a48:	cf 93       	push	r28
     a4a:	df 93       	push	r29
     a4c:	00 d0       	rcall	.+0      	; 0xa4e <send_command+0x8>
     a4e:	00 d0       	rcall	.+0      	; 0xa50 <send_command+0xa>
     a50:	00 d0       	rcall	.+0      	; 0xa52 <send_command+0xc>
     a52:	cd b7       	in	r28, 0x3d	; 61
     a54:	de b7       	in	r29, 0x3e	; 62
	uint8_t packet[6];
	packet[0] = 0x02;   // STX
     a56:	92 e0       	ldi	r25, 0x02	; 2
     a58:	99 83       	std	Y+1, r25	; 0x01
	packet[1] = cmd;
     a5a:	8a 83       	std	Y+2, r24	; 0x02
	packet[2] = table_id;
     a5c:	6b 83       	std	Y+3, r22	; 0x03
	packet[3] = data;
     a5e:	4c 83       	std	Y+4, r20	; 0x04
	packet[4] = crc8(&packet[1], 3);
     a60:	63 e0       	ldi	r22, 0x03	; 3
     a62:	ce 01       	movw	r24, r28
     a64:	02 96       	adiw	r24, 0x02	; 2
     a66:	0e 94 08 05 	call	0xa10	; 0xa10 <crc8>
     a6a:	8d 83       	std	Y+5, r24	; 0x05
	packet[5] = 0x03;   // ETX
     a6c:	83 e0       	ldi	r24, 0x03	; 3
     a6e:	8e 83       	std	Y+6, r24	; 0x06

	for (uint8_t i = 0; i < 6; i++) {
     a70:	10 e0       	ldi	r17, 0x00	; 0
     a72:	0a c0       	rjmp	.+20     	; 0xa88 <send_command+0x42>
		UART_send(packet[i]);
     a74:	e1 e0       	ldi	r30, 0x01	; 1
     a76:	f0 e0       	ldi	r31, 0x00	; 0
     a78:	ec 0f       	add	r30, r28
     a7a:	fd 1f       	adc	r31, r29
     a7c:	e1 0f       	add	r30, r17
     a7e:	f1 1d       	adc	r31, r1
     a80:	80 81       	ld	r24, Z
     a82:	0e 94 f3 04 	call	0x9e6	; 0x9e6 <UART_send>
	packet[2] = table_id;
	packet[3] = data;
	packet[4] = crc8(&packet[1], 3);
	packet[5] = 0x03;   // ETX

	for (uint8_t i = 0; i < 6; i++) {
     a86:	1f 5f       	subi	r17, 0xFF	; 255
     a88:	16 30       	cpi	r17, 0x06	; 6
     a8a:	a0 f3       	brcs	.-24     	; 0xa74 <send_command+0x2e>
		UART_send(packet[i]);
	}
}
     a8c:	26 96       	adiw	r28, 0x06	; 6
     a8e:	0f b6       	in	r0, 0x3f	; 63
     a90:	f8 94       	cli
     a92:	de bf       	out	0x3e, r29	; 62
     a94:	0f be       	out	0x3f, r0	; 63
     a96:	cd bf       	out	0x3d, r28	; 61
     a98:	df 91       	pop	r29
     a9a:	cf 91       	pop	r28
     a9c:	1f 91       	pop	r17
     a9e:	08 95       	ret

00000aa0 <UART_receive_full_packet>:
	}
	return crc;
}

// Единая функция приёма пакета: считывает, проверяет и возвращает структуру
UART_Packet UART_receive_full_packet(void) {
     aa0:	ef 92       	push	r14
     aa2:	ff 92       	push	r15
     aa4:	1f 93       	push	r17
     aa6:	cf 93       	push	r28
     aa8:	df 93       	push	r29
     aaa:	00 d0       	rcall	.+0      	; 0xaac <UART_receive_full_packet+0xc>
     aac:	00 d0       	rcall	.+0      	; 0xaae <UART_receive_full_packet+0xe>
     aae:	00 d0       	rcall	.+0      	; 0xab0 <UART_receive_full_packet+0x10>
     ab0:	cd b7       	in	r28, 0x3d	; 61
     ab2:	de b7       	in	r29, 0x3e	; 62
	UART_Packet packet = {0, 0, 0, 0};
	uint8_t received[6];

	// Ожидаем STX (0x02)
	if (UART_receive() != 0x02) {
     ab4:	0e 94 fa 04 	call	0x9f4	; 0x9f4 <UART_receive>
     ab8:	82 30       	cpi	r24, 0x02	; 2
     aba:	29 f0       	breq	.+10     	; 0xac6 <UART_receive_full_packet+0x26>
		return packet; // Пакет невалиден
     abc:	60 e0       	ldi	r22, 0x00	; 0
     abe:	70 e0       	ldi	r23, 0x00	; 0
     ac0:	80 e0       	ldi	r24, 0x00	; 0
     ac2:	90 e0       	ldi	r25, 0x00	; 0
     ac4:	23 c0       	rjmp	.+70     	; 0xb0c <UART_receive_full_packet+0x6c>
	}
	received[0] = 0x02;
     ac6:	82 e0       	ldi	r24, 0x02	; 2
     ac8:	89 83       	std	Y+1, r24	; 0x01

	// Считываем оставшиеся 5 байт
	for (uint8_t i = 1; i < 6; i++) {
     aca:	11 e0       	ldi	r17, 0x01	; 1
     acc:	0c c0       	rjmp	.+24     	; 0xae6 <UART_receive_full_packet+0x46>
		received[i] = UART_receive();
     ace:	e1 2e       	mov	r14, r17
     ad0:	f1 2c       	mov	r15, r1
     ad2:	0e 94 fa 04 	call	0x9f4	; 0x9f4 <UART_receive>
     ad6:	e1 e0       	ldi	r30, 0x01	; 1
     ad8:	f0 e0       	ldi	r31, 0x00	; 0
     ada:	ec 0f       	add	r30, r28
     adc:	fd 1f       	adc	r31, r29
     ade:	ee 0d       	add	r30, r14
     ae0:	ff 1d       	adc	r31, r15
     ae2:	80 83       	st	Z, r24
		return packet; // Пакет невалиден
	}
	received[0] = 0x02;

	// Считываем оставшиеся 5 байт
	for (uint8_t i = 1; i < 6; i++) {
     ae4:	1f 5f       	subi	r17, 0xFF	; 255
     ae6:	16 30       	cpi	r17, 0x06	; 6
     ae8:	90 f3       	brcs	.-28     	; 0xace <UART_receive_full_packet+0x2e>
		received[i] = UART_receive();
	}

	// Проверяем контрольную сумму
	if (crc8(&received[1], 3) != received[4]) {
     aea:	63 e0       	ldi	r22, 0x03	; 3
     aec:	ce 01       	movw	r24, r28
     aee:	02 96       	adiw	r24, 0x02	; 2
     af0:	0e 94 08 05 	call	0xa10	; 0xa10 <crc8>
     af4:	9d 81       	ldd	r25, Y+5	; 0x05
     af6:	89 17       	cp	r24, r25
     af8:	29 f0       	breq	.+10     	; 0xb04 <UART_receive_full_packet+0x64>
		return packet; // Ошибка CRC – пакет невалиден
     afa:	60 e0       	ldi	r22, 0x00	; 0
     afc:	70 e0       	ldi	r23, 0x00	; 0
     afe:	80 e0       	ldi	r24, 0x00	; 0
     b00:	90 e0       	ldi	r25, 0x00	; 0
     b02:	04 c0       	rjmp	.+8      	; 0xb0c <UART_receive_full_packet+0x6c>
	packet.cmd = received[1];
	packet.table_id = received[2];
	packet.param = received[3];
	packet.valid = 1;

	return packet;
     b04:	6a 81       	ldd	r22, Y+2	; 0x02
     b06:	7b 81       	ldd	r23, Y+3	; 0x03
     b08:	8c 81       	ldd	r24, Y+4	; 0x04
     b0a:	91 e0       	ldi	r25, 0x01	; 1
}
     b0c:	26 96       	adiw	r28, 0x06	; 6
     b0e:	0f b6       	in	r0, 0x3f	; 63
     b10:	f8 94       	cli
     b12:	de bf       	out	0x3e, r29	; 62
     b14:	0f be       	out	0x3f, r0	; 63
     b16:	cd bf       	out	0x3d, r28	; 61
     b18:	df 91       	pop	r29
     b1a:	cf 91       	pop	r28
     b1c:	1f 91       	pop	r17
     b1e:	ff 90       	pop	r15
     b20:	ef 90       	pop	r14
     b22:	08 95       	ret

00000b24 <send_ack>:
void send_ack(uint8_t cmd) {
	// Отправляем ACK с указанием команды, для которой подтверждение
	send_command(ACK, cmd, 0x00);
     b24:	40 e0       	ldi	r20, 0x00	; 0
     b26:	68 2f       	mov	r22, r24
     b28:	80 e4       	ldi	r24, 0x40	; 64
     b2a:	0e 94 23 05 	call	0xa46	; 0xa46 <send_command>
     b2e:	08 95       	ret

00000b30 <__divmodhi4>:
     b30:	97 fb       	bst	r25, 7
     b32:	07 2e       	mov	r0, r23
     b34:	16 f4       	brtc	.+4      	; 0xb3a <__divmodhi4+0xa>
     b36:	00 94       	com	r0
     b38:	07 d0       	rcall	.+14     	; 0xb48 <__divmodhi4_neg1>
     b3a:	77 fd       	sbrc	r23, 7
     b3c:	09 d0       	rcall	.+18     	; 0xb50 <__divmodhi4_neg2>
     b3e:	0e 94 ac 05 	call	0xb58	; 0xb58 <__udivmodhi4>
     b42:	07 fc       	sbrc	r0, 7
     b44:	05 d0       	rcall	.+10     	; 0xb50 <__divmodhi4_neg2>
     b46:	3e f4       	brtc	.+14     	; 0xb56 <__divmodhi4_exit>

00000b48 <__divmodhi4_neg1>:
     b48:	90 95       	com	r25
     b4a:	81 95       	neg	r24
     b4c:	9f 4f       	sbci	r25, 0xFF	; 255
     b4e:	08 95       	ret

00000b50 <__divmodhi4_neg2>:
     b50:	70 95       	com	r23
     b52:	61 95       	neg	r22
     b54:	7f 4f       	sbci	r23, 0xFF	; 255

00000b56 <__divmodhi4_exit>:
     b56:	08 95       	ret

00000b58 <__udivmodhi4>:
     b58:	aa 1b       	sub	r26, r26
     b5a:	bb 1b       	sub	r27, r27
     b5c:	51 e1       	ldi	r21, 0x11	; 17
     b5e:	07 c0       	rjmp	.+14     	; 0xb6e <__udivmodhi4_ep>

00000b60 <__udivmodhi4_loop>:
     b60:	aa 1f       	adc	r26, r26
     b62:	bb 1f       	adc	r27, r27
     b64:	a6 17       	cp	r26, r22
     b66:	b7 07       	cpc	r27, r23
     b68:	10 f0       	brcs	.+4      	; 0xb6e <__udivmodhi4_ep>
     b6a:	a6 1b       	sub	r26, r22
     b6c:	b7 0b       	sbc	r27, r23

00000b6e <__udivmodhi4_ep>:
     b6e:	88 1f       	adc	r24, r24
     b70:	99 1f       	adc	r25, r25
     b72:	5a 95       	dec	r21
     b74:	a9 f7       	brne	.-22     	; 0xb60 <__udivmodhi4_loop>
     b76:	80 95       	com	r24
     b78:	90 95       	com	r25
     b7a:	bc 01       	movw	r22, r24
     b7c:	cd 01       	movw	r24, r26
     b7e:	08 95       	ret

00000b80 <memset>:
     b80:	dc 01       	movw	r26, r24
     b82:	01 c0       	rjmp	.+2      	; 0xb86 <memset+0x6>
     b84:	6d 93       	st	X+, r22
     b86:	41 50       	subi	r20, 0x01	; 1
     b88:	50 40       	sbci	r21, 0x00	; 0
     b8a:	e0 f7       	brcc	.-8      	; 0xb84 <memset+0x4>
     b8c:	08 95       	ret

00000b8e <snprintf>:
     b8e:	ae e0       	ldi	r26, 0x0E	; 14
     b90:	b0 e0       	ldi	r27, 0x00	; 0
     b92:	ed ec       	ldi	r30, 0xCD	; 205
     b94:	f5 e0       	ldi	r31, 0x05	; 5
     b96:	0c 94 96 08 	jmp	0x112c	; 0x112c <__prologue_saves__+0x1c>
     b9a:	0d 89       	ldd	r16, Y+21	; 0x15
     b9c:	1e 89       	ldd	r17, Y+22	; 0x16
     b9e:	8f 89       	ldd	r24, Y+23	; 0x17
     ba0:	98 8d       	ldd	r25, Y+24	; 0x18
     ba2:	26 e0       	ldi	r18, 0x06	; 6
     ba4:	2c 83       	std	Y+4, r18	; 0x04
     ba6:	1a 83       	std	Y+2, r17	; 0x02
     ba8:	09 83       	std	Y+1, r16	; 0x01
     baa:	97 ff       	sbrs	r25, 7
     bac:	02 c0       	rjmp	.+4      	; 0xbb2 <snprintf+0x24>
     bae:	80 e0       	ldi	r24, 0x00	; 0
     bb0:	90 e8       	ldi	r25, 0x80	; 128
     bb2:	01 97       	sbiw	r24, 0x01	; 1
     bb4:	9e 83       	std	Y+6, r25	; 0x06
     bb6:	8d 83       	std	Y+5, r24	; 0x05
     bb8:	ae 01       	movw	r20, r28
     bba:	45 5e       	subi	r20, 0xE5	; 229
     bbc:	5f 4f       	sbci	r21, 0xFF	; 255
     bbe:	69 8d       	ldd	r22, Y+25	; 0x19
     bc0:	7a 8d       	ldd	r23, Y+26	; 0x1a
     bc2:	ce 01       	movw	r24, r28
     bc4:	01 96       	adiw	r24, 0x01	; 1
     bc6:	0e 94 f7 05 	call	0xbee	; 0xbee <vfprintf>
     bca:	4d 81       	ldd	r20, Y+5	; 0x05
     bcc:	5e 81       	ldd	r21, Y+6	; 0x06
     bce:	57 fd       	sbrc	r21, 7
     bd0:	0a c0       	rjmp	.+20     	; 0xbe6 <snprintf+0x58>
     bd2:	2f 81       	ldd	r18, Y+7	; 0x07
     bd4:	38 85       	ldd	r19, Y+8	; 0x08
     bd6:	42 17       	cp	r20, r18
     bd8:	53 07       	cpc	r21, r19
     bda:	0c f4       	brge	.+2      	; 0xbde <snprintf+0x50>
     bdc:	9a 01       	movw	r18, r20
     bde:	f8 01       	movw	r30, r16
     be0:	e2 0f       	add	r30, r18
     be2:	f3 1f       	adc	r31, r19
     be4:	10 82       	st	Z, r1
     be6:	2e 96       	adiw	r28, 0x0e	; 14
     be8:	e4 e0       	ldi	r30, 0x04	; 4
     bea:	0c 94 b2 08 	jmp	0x1164	; 0x1164 <__epilogue_restores__+0x1c>

00000bee <vfprintf>:
     bee:	ab e0       	ldi	r26, 0x0B	; 11
     bf0:	b0 e0       	ldi	r27, 0x00	; 0
     bf2:	ed ef       	ldi	r30, 0xFD	; 253
     bf4:	f5 e0       	ldi	r31, 0x05	; 5
     bf6:	0c 94 88 08 	jmp	0x1110	; 0x1110 <__prologue_saves__>
     bfa:	6c 01       	movw	r12, r24
     bfc:	7b 01       	movw	r14, r22
     bfe:	8a 01       	movw	r16, r20
     c00:	fc 01       	movw	r30, r24
     c02:	17 82       	std	Z+7, r1	; 0x07
     c04:	16 82       	std	Z+6, r1	; 0x06
     c06:	83 81       	ldd	r24, Z+3	; 0x03
     c08:	81 ff       	sbrs	r24, 1
     c0a:	cc c1       	rjmp	.+920    	; 0xfa4 <vfprintf+0x3b6>
     c0c:	ce 01       	movw	r24, r28
     c0e:	01 96       	adiw	r24, 0x01	; 1
     c10:	3c 01       	movw	r6, r24
     c12:	f6 01       	movw	r30, r12
     c14:	93 81       	ldd	r25, Z+3	; 0x03
     c16:	f7 01       	movw	r30, r14
     c18:	93 fd       	sbrc	r25, 3
     c1a:	85 91       	lpm	r24, Z+
     c1c:	93 ff       	sbrs	r25, 3
     c1e:	81 91       	ld	r24, Z+
     c20:	7f 01       	movw	r14, r30
     c22:	88 23       	and	r24, r24
     c24:	09 f4       	brne	.+2      	; 0xc28 <vfprintf+0x3a>
     c26:	ba c1       	rjmp	.+884    	; 0xf9c <vfprintf+0x3ae>
     c28:	85 32       	cpi	r24, 0x25	; 37
     c2a:	39 f4       	brne	.+14     	; 0xc3a <vfprintf+0x4c>
     c2c:	93 fd       	sbrc	r25, 3
     c2e:	85 91       	lpm	r24, Z+
     c30:	93 ff       	sbrs	r25, 3
     c32:	81 91       	ld	r24, Z+
     c34:	7f 01       	movw	r14, r30
     c36:	85 32       	cpi	r24, 0x25	; 37
     c38:	29 f4       	brne	.+10     	; 0xc44 <vfprintf+0x56>
     c3a:	b6 01       	movw	r22, r12
     c3c:	90 e0       	ldi	r25, 0x00	; 0
     c3e:	0e 94 ee 07 	call	0xfdc	; 0xfdc <fputc>
     c42:	e7 cf       	rjmp	.-50     	; 0xc12 <vfprintf+0x24>
     c44:	91 2c       	mov	r9, r1
     c46:	21 2c       	mov	r2, r1
     c48:	31 2c       	mov	r3, r1
     c4a:	ff e1       	ldi	r31, 0x1F	; 31
     c4c:	f3 15       	cp	r31, r3
     c4e:	d8 f0       	brcs	.+54     	; 0xc86 <vfprintf+0x98>
     c50:	8b 32       	cpi	r24, 0x2B	; 43
     c52:	79 f0       	breq	.+30     	; 0xc72 <vfprintf+0x84>
     c54:	38 f4       	brcc	.+14     	; 0xc64 <vfprintf+0x76>
     c56:	80 32       	cpi	r24, 0x20	; 32
     c58:	79 f0       	breq	.+30     	; 0xc78 <vfprintf+0x8a>
     c5a:	83 32       	cpi	r24, 0x23	; 35
     c5c:	a1 f4       	brne	.+40     	; 0xc86 <vfprintf+0x98>
     c5e:	23 2d       	mov	r18, r3
     c60:	20 61       	ori	r18, 0x10	; 16
     c62:	1d c0       	rjmp	.+58     	; 0xc9e <vfprintf+0xb0>
     c64:	8d 32       	cpi	r24, 0x2D	; 45
     c66:	61 f0       	breq	.+24     	; 0xc80 <vfprintf+0x92>
     c68:	80 33       	cpi	r24, 0x30	; 48
     c6a:	69 f4       	brne	.+26     	; 0xc86 <vfprintf+0x98>
     c6c:	23 2d       	mov	r18, r3
     c6e:	21 60       	ori	r18, 0x01	; 1
     c70:	16 c0       	rjmp	.+44     	; 0xc9e <vfprintf+0xb0>
     c72:	83 2d       	mov	r24, r3
     c74:	82 60       	ori	r24, 0x02	; 2
     c76:	38 2e       	mov	r3, r24
     c78:	e3 2d       	mov	r30, r3
     c7a:	e4 60       	ori	r30, 0x04	; 4
     c7c:	3e 2e       	mov	r3, r30
     c7e:	2a c0       	rjmp	.+84     	; 0xcd4 <vfprintf+0xe6>
     c80:	f3 2d       	mov	r31, r3
     c82:	f8 60       	ori	r31, 0x08	; 8
     c84:	1d c0       	rjmp	.+58     	; 0xcc0 <vfprintf+0xd2>
     c86:	37 fc       	sbrc	r3, 7
     c88:	2d c0       	rjmp	.+90     	; 0xce4 <vfprintf+0xf6>
     c8a:	20 ed       	ldi	r18, 0xD0	; 208
     c8c:	28 0f       	add	r18, r24
     c8e:	2a 30       	cpi	r18, 0x0A	; 10
     c90:	40 f0       	brcs	.+16     	; 0xca2 <vfprintf+0xb4>
     c92:	8e 32       	cpi	r24, 0x2E	; 46
     c94:	b9 f4       	brne	.+46     	; 0xcc4 <vfprintf+0xd6>
     c96:	36 fc       	sbrc	r3, 6
     c98:	81 c1       	rjmp	.+770    	; 0xf9c <vfprintf+0x3ae>
     c9a:	23 2d       	mov	r18, r3
     c9c:	20 64       	ori	r18, 0x40	; 64
     c9e:	32 2e       	mov	r3, r18
     ca0:	19 c0       	rjmp	.+50     	; 0xcd4 <vfprintf+0xe6>
     ca2:	36 fe       	sbrs	r3, 6
     ca4:	06 c0       	rjmp	.+12     	; 0xcb2 <vfprintf+0xc4>
     ca6:	8a e0       	ldi	r24, 0x0A	; 10
     ca8:	98 9e       	mul	r9, r24
     caa:	20 0d       	add	r18, r0
     cac:	11 24       	eor	r1, r1
     cae:	92 2e       	mov	r9, r18
     cb0:	11 c0       	rjmp	.+34     	; 0xcd4 <vfprintf+0xe6>
     cb2:	ea e0       	ldi	r30, 0x0A	; 10
     cb4:	2e 9e       	mul	r2, r30
     cb6:	20 0d       	add	r18, r0
     cb8:	11 24       	eor	r1, r1
     cba:	22 2e       	mov	r2, r18
     cbc:	f3 2d       	mov	r31, r3
     cbe:	f0 62       	ori	r31, 0x20	; 32
     cc0:	3f 2e       	mov	r3, r31
     cc2:	08 c0       	rjmp	.+16     	; 0xcd4 <vfprintf+0xe6>
     cc4:	8c 36       	cpi	r24, 0x6C	; 108
     cc6:	21 f4       	brne	.+8      	; 0xcd0 <vfprintf+0xe2>
     cc8:	83 2d       	mov	r24, r3
     cca:	80 68       	ori	r24, 0x80	; 128
     ccc:	38 2e       	mov	r3, r24
     cce:	02 c0       	rjmp	.+4      	; 0xcd4 <vfprintf+0xe6>
     cd0:	88 36       	cpi	r24, 0x68	; 104
     cd2:	41 f4       	brne	.+16     	; 0xce4 <vfprintf+0xf6>
     cd4:	f7 01       	movw	r30, r14
     cd6:	93 fd       	sbrc	r25, 3
     cd8:	85 91       	lpm	r24, Z+
     cda:	93 ff       	sbrs	r25, 3
     cdc:	81 91       	ld	r24, Z+
     cde:	7f 01       	movw	r14, r30
     ce0:	81 11       	cpse	r24, r1
     ce2:	b3 cf       	rjmp	.-154    	; 0xc4a <vfprintf+0x5c>
     ce4:	98 2f       	mov	r25, r24
     ce6:	9f 7d       	andi	r25, 0xDF	; 223
     ce8:	95 54       	subi	r25, 0x45	; 69
     cea:	93 30       	cpi	r25, 0x03	; 3
     cec:	28 f4       	brcc	.+10     	; 0xcf8 <vfprintf+0x10a>
     cee:	0c 5f       	subi	r16, 0xFC	; 252
     cf0:	1f 4f       	sbci	r17, 0xFF	; 255
     cf2:	9f e3       	ldi	r25, 0x3F	; 63
     cf4:	99 83       	std	Y+1, r25	; 0x01
     cf6:	0d c0       	rjmp	.+26     	; 0xd12 <vfprintf+0x124>
     cf8:	83 36       	cpi	r24, 0x63	; 99
     cfa:	31 f0       	breq	.+12     	; 0xd08 <vfprintf+0x11a>
     cfc:	83 37       	cpi	r24, 0x73	; 115
     cfe:	71 f0       	breq	.+28     	; 0xd1c <vfprintf+0x12e>
     d00:	83 35       	cpi	r24, 0x53	; 83
     d02:	09 f0       	breq	.+2      	; 0xd06 <vfprintf+0x118>
     d04:	59 c0       	rjmp	.+178    	; 0xdb8 <vfprintf+0x1ca>
     d06:	21 c0       	rjmp	.+66     	; 0xd4a <vfprintf+0x15c>
     d08:	f8 01       	movw	r30, r16
     d0a:	80 81       	ld	r24, Z
     d0c:	89 83       	std	Y+1, r24	; 0x01
     d0e:	0e 5f       	subi	r16, 0xFE	; 254
     d10:	1f 4f       	sbci	r17, 0xFF	; 255
     d12:	88 24       	eor	r8, r8
     d14:	83 94       	inc	r8
     d16:	91 2c       	mov	r9, r1
     d18:	53 01       	movw	r10, r6
     d1a:	13 c0       	rjmp	.+38     	; 0xd42 <vfprintf+0x154>
     d1c:	28 01       	movw	r4, r16
     d1e:	f2 e0       	ldi	r31, 0x02	; 2
     d20:	4f 0e       	add	r4, r31
     d22:	51 1c       	adc	r5, r1
     d24:	f8 01       	movw	r30, r16
     d26:	a0 80       	ld	r10, Z
     d28:	b1 80       	ldd	r11, Z+1	; 0x01
     d2a:	36 fe       	sbrs	r3, 6
     d2c:	03 c0       	rjmp	.+6      	; 0xd34 <vfprintf+0x146>
     d2e:	69 2d       	mov	r22, r9
     d30:	70 e0       	ldi	r23, 0x00	; 0
     d32:	02 c0       	rjmp	.+4      	; 0xd38 <vfprintf+0x14a>
     d34:	6f ef       	ldi	r22, 0xFF	; 255
     d36:	7f ef       	ldi	r23, 0xFF	; 255
     d38:	c5 01       	movw	r24, r10
     d3a:	0e 94 e3 07 	call	0xfc6	; 0xfc6 <strnlen>
     d3e:	4c 01       	movw	r8, r24
     d40:	82 01       	movw	r16, r4
     d42:	f3 2d       	mov	r31, r3
     d44:	ff 77       	andi	r31, 0x7F	; 127
     d46:	3f 2e       	mov	r3, r31
     d48:	16 c0       	rjmp	.+44     	; 0xd76 <vfprintf+0x188>
     d4a:	28 01       	movw	r4, r16
     d4c:	22 e0       	ldi	r18, 0x02	; 2
     d4e:	42 0e       	add	r4, r18
     d50:	51 1c       	adc	r5, r1
     d52:	f8 01       	movw	r30, r16
     d54:	a0 80       	ld	r10, Z
     d56:	b1 80       	ldd	r11, Z+1	; 0x01
     d58:	36 fe       	sbrs	r3, 6
     d5a:	03 c0       	rjmp	.+6      	; 0xd62 <vfprintf+0x174>
     d5c:	69 2d       	mov	r22, r9
     d5e:	70 e0       	ldi	r23, 0x00	; 0
     d60:	02 c0       	rjmp	.+4      	; 0xd66 <vfprintf+0x178>
     d62:	6f ef       	ldi	r22, 0xFF	; 255
     d64:	7f ef       	ldi	r23, 0xFF	; 255
     d66:	c5 01       	movw	r24, r10
     d68:	0e 94 d8 07 	call	0xfb0	; 0xfb0 <strnlen_P>
     d6c:	4c 01       	movw	r8, r24
     d6e:	f3 2d       	mov	r31, r3
     d70:	f0 68       	ori	r31, 0x80	; 128
     d72:	3f 2e       	mov	r3, r31
     d74:	82 01       	movw	r16, r4
     d76:	33 fc       	sbrc	r3, 3
     d78:	1b c0       	rjmp	.+54     	; 0xdb0 <vfprintf+0x1c2>
     d7a:	82 2d       	mov	r24, r2
     d7c:	90 e0       	ldi	r25, 0x00	; 0
     d7e:	88 16       	cp	r8, r24
     d80:	99 06       	cpc	r9, r25
     d82:	b0 f4       	brcc	.+44     	; 0xdb0 <vfprintf+0x1c2>
     d84:	b6 01       	movw	r22, r12
     d86:	80 e2       	ldi	r24, 0x20	; 32
     d88:	90 e0       	ldi	r25, 0x00	; 0
     d8a:	0e 94 ee 07 	call	0xfdc	; 0xfdc <fputc>
     d8e:	2a 94       	dec	r2
     d90:	f4 cf       	rjmp	.-24     	; 0xd7a <vfprintf+0x18c>
     d92:	f5 01       	movw	r30, r10
     d94:	37 fc       	sbrc	r3, 7
     d96:	85 91       	lpm	r24, Z+
     d98:	37 fe       	sbrs	r3, 7
     d9a:	81 91       	ld	r24, Z+
     d9c:	5f 01       	movw	r10, r30
     d9e:	b6 01       	movw	r22, r12
     da0:	90 e0       	ldi	r25, 0x00	; 0
     da2:	0e 94 ee 07 	call	0xfdc	; 0xfdc <fputc>
     da6:	21 10       	cpse	r2, r1
     da8:	2a 94       	dec	r2
     daa:	21 e0       	ldi	r18, 0x01	; 1
     dac:	82 1a       	sub	r8, r18
     dae:	91 08       	sbc	r9, r1
     db0:	81 14       	cp	r8, r1
     db2:	91 04       	cpc	r9, r1
     db4:	71 f7       	brne	.-36     	; 0xd92 <vfprintf+0x1a4>
     db6:	e8 c0       	rjmp	.+464    	; 0xf88 <vfprintf+0x39a>
     db8:	84 36       	cpi	r24, 0x64	; 100
     dba:	11 f0       	breq	.+4      	; 0xdc0 <vfprintf+0x1d2>
     dbc:	89 36       	cpi	r24, 0x69	; 105
     dbe:	41 f5       	brne	.+80     	; 0xe10 <vfprintf+0x222>
     dc0:	f8 01       	movw	r30, r16
     dc2:	37 fe       	sbrs	r3, 7
     dc4:	07 c0       	rjmp	.+14     	; 0xdd4 <vfprintf+0x1e6>
     dc6:	60 81       	ld	r22, Z
     dc8:	71 81       	ldd	r23, Z+1	; 0x01
     dca:	82 81       	ldd	r24, Z+2	; 0x02
     dcc:	93 81       	ldd	r25, Z+3	; 0x03
     dce:	0c 5f       	subi	r16, 0xFC	; 252
     dd0:	1f 4f       	sbci	r17, 0xFF	; 255
     dd2:	08 c0       	rjmp	.+16     	; 0xde4 <vfprintf+0x1f6>
     dd4:	60 81       	ld	r22, Z
     dd6:	71 81       	ldd	r23, Z+1	; 0x01
     dd8:	07 2e       	mov	r0, r23
     dda:	00 0c       	add	r0, r0
     ddc:	88 0b       	sbc	r24, r24
     dde:	99 0b       	sbc	r25, r25
     de0:	0e 5f       	subi	r16, 0xFE	; 254
     de2:	1f 4f       	sbci	r17, 0xFF	; 255
     de4:	f3 2d       	mov	r31, r3
     de6:	ff 76       	andi	r31, 0x6F	; 111
     de8:	3f 2e       	mov	r3, r31
     dea:	97 ff       	sbrs	r25, 7
     dec:	09 c0       	rjmp	.+18     	; 0xe00 <vfprintf+0x212>
     dee:	90 95       	com	r25
     df0:	80 95       	com	r24
     df2:	70 95       	com	r23
     df4:	61 95       	neg	r22
     df6:	7f 4f       	sbci	r23, 0xFF	; 255
     df8:	8f 4f       	sbci	r24, 0xFF	; 255
     dfa:	9f 4f       	sbci	r25, 0xFF	; 255
     dfc:	f0 68       	ori	r31, 0x80	; 128
     dfe:	3f 2e       	mov	r3, r31
     e00:	2a e0       	ldi	r18, 0x0A	; 10
     e02:	30 e0       	ldi	r19, 0x00	; 0
     e04:	a3 01       	movw	r20, r6
     e06:	0e 94 2a 08 	call	0x1054	; 0x1054 <__ultoa_invert>
     e0a:	88 2e       	mov	r8, r24
     e0c:	86 18       	sub	r8, r6
     e0e:	45 c0       	rjmp	.+138    	; 0xe9a <vfprintf+0x2ac>
     e10:	85 37       	cpi	r24, 0x75	; 117
     e12:	31 f4       	brne	.+12     	; 0xe20 <vfprintf+0x232>
     e14:	23 2d       	mov	r18, r3
     e16:	2f 7e       	andi	r18, 0xEF	; 239
     e18:	b2 2e       	mov	r11, r18
     e1a:	2a e0       	ldi	r18, 0x0A	; 10
     e1c:	30 e0       	ldi	r19, 0x00	; 0
     e1e:	25 c0       	rjmp	.+74     	; 0xe6a <vfprintf+0x27c>
     e20:	93 2d       	mov	r25, r3
     e22:	99 7f       	andi	r25, 0xF9	; 249
     e24:	b9 2e       	mov	r11, r25
     e26:	8f 36       	cpi	r24, 0x6F	; 111
     e28:	c1 f0       	breq	.+48     	; 0xe5a <vfprintf+0x26c>
     e2a:	18 f4       	brcc	.+6      	; 0xe32 <vfprintf+0x244>
     e2c:	88 35       	cpi	r24, 0x58	; 88
     e2e:	79 f0       	breq	.+30     	; 0xe4e <vfprintf+0x260>
     e30:	b5 c0       	rjmp	.+362    	; 0xf9c <vfprintf+0x3ae>
     e32:	80 37       	cpi	r24, 0x70	; 112
     e34:	19 f0       	breq	.+6      	; 0xe3c <vfprintf+0x24e>
     e36:	88 37       	cpi	r24, 0x78	; 120
     e38:	21 f0       	breq	.+8      	; 0xe42 <vfprintf+0x254>
     e3a:	b0 c0       	rjmp	.+352    	; 0xf9c <vfprintf+0x3ae>
     e3c:	e9 2f       	mov	r30, r25
     e3e:	e0 61       	ori	r30, 0x10	; 16
     e40:	be 2e       	mov	r11, r30
     e42:	b4 fe       	sbrs	r11, 4
     e44:	0d c0       	rjmp	.+26     	; 0xe60 <vfprintf+0x272>
     e46:	fb 2d       	mov	r31, r11
     e48:	f4 60       	ori	r31, 0x04	; 4
     e4a:	bf 2e       	mov	r11, r31
     e4c:	09 c0       	rjmp	.+18     	; 0xe60 <vfprintf+0x272>
     e4e:	34 fe       	sbrs	r3, 4
     e50:	0a c0       	rjmp	.+20     	; 0xe66 <vfprintf+0x278>
     e52:	29 2f       	mov	r18, r25
     e54:	26 60       	ori	r18, 0x06	; 6
     e56:	b2 2e       	mov	r11, r18
     e58:	06 c0       	rjmp	.+12     	; 0xe66 <vfprintf+0x278>
     e5a:	28 e0       	ldi	r18, 0x08	; 8
     e5c:	30 e0       	ldi	r19, 0x00	; 0
     e5e:	05 c0       	rjmp	.+10     	; 0xe6a <vfprintf+0x27c>
     e60:	20 e1       	ldi	r18, 0x10	; 16
     e62:	30 e0       	ldi	r19, 0x00	; 0
     e64:	02 c0       	rjmp	.+4      	; 0xe6a <vfprintf+0x27c>
     e66:	20 e1       	ldi	r18, 0x10	; 16
     e68:	32 e0       	ldi	r19, 0x02	; 2
     e6a:	f8 01       	movw	r30, r16
     e6c:	b7 fe       	sbrs	r11, 7
     e6e:	07 c0       	rjmp	.+14     	; 0xe7e <vfprintf+0x290>
     e70:	60 81       	ld	r22, Z
     e72:	71 81       	ldd	r23, Z+1	; 0x01
     e74:	82 81       	ldd	r24, Z+2	; 0x02
     e76:	93 81       	ldd	r25, Z+3	; 0x03
     e78:	0c 5f       	subi	r16, 0xFC	; 252
     e7a:	1f 4f       	sbci	r17, 0xFF	; 255
     e7c:	06 c0       	rjmp	.+12     	; 0xe8a <vfprintf+0x29c>
     e7e:	60 81       	ld	r22, Z
     e80:	71 81       	ldd	r23, Z+1	; 0x01
     e82:	80 e0       	ldi	r24, 0x00	; 0
     e84:	90 e0       	ldi	r25, 0x00	; 0
     e86:	0e 5f       	subi	r16, 0xFE	; 254
     e88:	1f 4f       	sbci	r17, 0xFF	; 255
     e8a:	a3 01       	movw	r20, r6
     e8c:	0e 94 2a 08 	call	0x1054	; 0x1054 <__ultoa_invert>
     e90:	88 2e       	mov	r8, r24
     e92:	86 18       	sub	r8, r6
     e94:	fb 2d       	mov	r31, r11
     e96:	ff 77       	andi	r31, 0x7F	; 127
     e98:	3f 2e       	mov	r3, r31
     e9a:	36 fe       	sbrs	r3, 6
     e9c:	0d c0       	rjmp	.+26     	; 0xeb8 <vfprintf+0x2ca>
     e9e:	23 2d       	mov	r18, r3
     ea0:	2e 7f       	andi	r18, 0xFE	; 254
     ea2:	a2 2e       	mov	r10, r18
     ea4:	89 14       	cp	r8, r9
     ea6:	58 f4       	brcc	.+22     	; 0xebe <vfprintf+0x2d0>
     ea8:	34 fe       	sbrs	r3, 4
     eaa:	0b c0       	rjmp	.+22     	; 0xec2 <vfprintf+0x2d4>
     eac:	32 fc       	sbrc	r3, 2
     eae:	09 c0       	rjmp	.+18     	; 0xec2 <vfprintf+0x2d4>
     eb0:	83 2d       	mov	r24, r3
     eb2:	8e 7e       	andi	r24, 0xEE	; 238
     eb4:	a8 2e       	mov	r10, r24
     eb6:	05 c0       	rjmp	.+10     	; 0xec2 <vfprintf+0x2d4>
     eb8:	b8 2c       	mov	r11, r8
     eba:	a3 2c       	mov	r10, r3
     ebc:	03 c0       	rjmp	.+6      	; 0xec4 <vfprintf+0x2d6>
     ebe:	b8 2c       	mov	r11, r8
     ec0:	01 c0       	rjmp	.+2      	; 0xec4 <vfprintf+0x2d6>
     ec2:	b9 2c       	mov	r11, r9
     ec4:	a4 fe       	sbrs	r10, 4
     ec6:	0f c0       	rjmp	.+30     	; 0xee6 <vfprintf+0x2f8>
     ec8:	fe 01       	movw	r30, r28
     eca:	e8 0d       	add	r30, r8
     ecc:	f1 1d       	adc	r31, r1
     ece:	80 81       	ld	r24, Z
     ed0:	80 33       	cpi	r24, 0x30	; 48
     ed2:	21 f4       	brne	.+8      	; 0xedc <vfprintf+0x2ee>
     ed4:	9a 2d       	mov	r25, r10
     ed6:	99 7e       	andi	r25, 0xE9	; 233
     ed8:	a9 2e       	mov	r10, r25
     eda:	09 c0       	rjmp	.+18     	; 0xeee <vfprintf+0x300>
     edc:	a2 fe       	sbrs	r10, 2
     ede:	06 c0       	rjmp	.+12     	; 0xeec <vfprintf+0x2fe>
     ee0:	b3 94       	inc	r11
     ee2:	b3 94       	inc	r11
     ee4:	04 c0       	rjmp	.+8      	; 0xeee <vfprintf+0x300>
     ee6:	8a 2d       	mov	r24, r10
     ee8:	86 78       	andi	r24, 0x86	; 134
     eea:	09 f0       	breq	.+2      	; 0xeee <vfprintf+0x300>
     eec:	b3 94       	inc	r11
     eee:	a3 fc       	sbrc	r10, 3
     ef0:	11 c0       	rjmp	.+34     	; 0xf14 <vfprintf+0x326>
     ef2:	a0 fe       	sbrs	r10, 0
     ef4:	06 c0       	rjmp	.+12     	; 0xf02 <vfprintf+0x314>
     ef6:	b2 14       	cp	r11, r2
     ef8:	88 f4       	brcc	.+34     	; 0xf1c <vfprintf+0x32e>
     efa:	28 0c       	add	r2, r8
     efc:	92 2c       	mov	r9, r2
     efe:	9b 18       	sub	r9, r11
     f00:	0e c0       	rjmp	.+28     	; 0xf1e <vfprintf+0x330>
     f02:	b2 14       	cp	r11, r2
     f04:	60 f4       	brcc	.+24     	; 0xf1e <vfprintf+0x330>
     f06:	b6 01       	movw	r22, r12
     f08:	80 e2       	ldi	r24, 0x20	; 32
     f0a:	90 e0       	ldi	r25, 0x00	; 0
     f0c:	0e 94 ee 07 	call	0xfdc	; 0xfdc <fputc>
     f10:	b3 94       	inc	r11
     f12:	f7 cf       	rjmp	.-18     	; 0xf02 <vfprintf+0x314>
     f14:	b2 14       	cp	r11, r2
     f16:	18 f4       	brcc	.+6      	; 0xf1e <vfprintf+0x330>
     f18:	2b 18       	sub	r2, r11
     f1a:	02 c0       	rjmp	.+4      	; 0xf20 <vfprintf+0x332>
     f1c:	98 2c       	mov	r9, r8
     f1e:	21 2c       	mov	r2, r1
     f20:	a4 fe       	sbrs	r10, 4
     f22:	10 c0       	rjmp	.+32     	; 0xf44 <vfprintf+0x356>
     f24:	b6 01       	movw	r22, r12
     f26:	80 e3       	ldi	r24, 0x30	; 48
     f28:	90 e0       	ldi	r25, 0x00	; 0
     f2a:	0e 94 ee 07 	call	0xfdc	; 0xfdc <fputc>
     f2e:	a2 fe       	sbrs	r10, 2
     f30:	17 c0       	rjmp	.+46     	; 0xf60 <vfprintf+0x372>
     f32:	a1 fc       	sbrc	r10, 1
     f34:	03 c0       	rjmp	.+6      	; 0xf3c <vfprintf+0x34e>
     f36:	88 e7       	ldi	r24, 0x78	; 120
     f38:	90 e0       	ldi	r25, 0x00	; 0
     f3a:	02 c0       	rjmp	.+4      	; 0xf40 <vfprintf+0x352>
     f3c:	88 e5       	ldi	r24, 0x58	; 88
     f3e:	90 e0       	ldi	r25, 0x00	; 0
     f40:	b6 01       	movw	r22, r12
     f42:	0c c0       	rjmp	.+24     	; 0xf5c <vfprintf+0x36e>
     f44:	8a 2d       	mov	r24, r10
     f46:	86 78       	andi	r24, 0x86	; 134
     f48:	59 f0       	breq	.+22     	; 0xf60 <vfprintf+0x372>
     f4a:	a1 fe       	sbrs	r10, 1
     f4c:	02 c0       	rjmp	.+4      	; 0xf52 <vfprintf+0x364>
     f4e:	8b e2       	ldi	r24, 0x2B	; 43
     f50:	01 c0       	rjmp	.+2      	; 0xf54 <vfprintf+0x366>
     f52:	80 e2       	ldi	r24, 0x20	; 32
     f54:	a7 fc       	sbrc	r10, 7
     f56:	8d e2       	ldi	r24, 0x2D	; 45
     f58:	b6 01       	movw	r22, r12
     f5a:	90 e0       	ldi	r25, 0x00	; 0
     f5c:	0e 94 ee 07 	call	0xfdc	; 0xfdc <fputc>
     f60:	89 14       	cp	r8, r9
     f62:	38 f4       	brcc	.+14     	; 0xf72 <vfprintf+0x384>
     f64:	b6 01       	movw	r22, r12
     f66:	80 e3       	ldi	r24, 0x30	; 48
     f68:	90 e0       	ldi	r25, 0x00	; 0
     f6a:	0e 94 ee 07 	call	0xfdc	; 0xfdc <fputc>
     f6e:	9a 94       	dec	r9
     f70:	f7 cf       	rjmp	.-18     	; 0xf60 <vfprintf+0x372>
     f72:	8a 94       	dec	r8
     f74:	f3 01       	movw	r30, r6
     f76:	e8 0d       	add	r30, r8
     f78:	f1 1d       	adc	r31, r1
     f7a:	80 81       	ld	r24, Z
     f7c:	b6 01       	movw	r22, r12
     f7e:	90 e0       	ldi	r25, 0x00	; 0
     f80:	0e 94 ee 07 	call	0xfdc	; 0xfdc <fputc>
     f84:	81 10       	cpse	r8, r1
     f86:	f5 cf       	rjmp	.-22     	; 0xf72 <vfprintf+0x384>
     f88:	22 20       	and	r2, r2
     f8a:	09 f4       	brne	.+2      	; 0xf8e <vfprintf+0x3a0>
     f8c:	42 ce       	rjmp	.-892    	; 0xc12 <vfprintf+0x24>
     f8e:	b6 01       	movw	r22, r12
     f90:	80 e2       	ldi	r24, 0x20	; 32
     f92:	90 e0       	ldi	r25, 0x00	; 0
     f94:	0e 94 ee 07 	call	0xfdc	; 0xfdc <fputc>
     f98:	2a 94       	dec	r2
     f9a:	f6 cf       	rjmp	.-20     	; 0xf88 <vfprintf+0x39a>
     f9c:	f6 01       	movw	r30, r12
     f9e:	86 81       	ldd	r24, Z+6	; 0x06
     fa0:	97 81       	ldd	r25, Z+7	; 0x07
     fa2:	02 c0       	rjmp	.+4      	; 0xfa8 <vfprintf+0x3ba>
     fa4:	8f ef       	ldi	r24, 0xFF	; 255
     fa6:	9f ef       	ldi	r25, 0xFF	; 255
     fa8:	2b 96       	adiw	r28, 0x0b	; 11
     faa:	e2 e1       	ldi	r30, 0x12	; 18
     fac:	0c 94 a4 08 	jmp	0x1148	; 0x1148 <__epilogue_restores__>

00000fb0 <strnlen_P>:
     fb0:	fc 01       	movw	r30, r24
     fb2:	05 90       	lpm	r0, Z+
     fb4:	61 50       	subi	r22, 0x01	; 1
     fb6:	70 40       	sbci	r23, 0x00	; 0
     fb8:	01 10       	cpse	r0, r1
     fba:	d8 f7       	brcc	.-10     	; 0xfb2 <strnlen_P+0x2>
     fbc:	80 95       	com	r24
     fbe:	90 95       	com	r25
     fc0:	8e 0f       	add	r24, r30
     fc2:	9f 1f       	adc	r25, r31
     fc4:	08 95       	ret

00000fc6 <strnlen>:
     fc6:	fc 01       	movw	r30, r24
     fc8:	61 50       	subi	r22, 0x01	; 1
     fca:	70 40       	sbci	r23, 0x00	; 0
     fcc:	01 90       	ld	r0, Z+
     fce:	01 10       	cpse	r0, r1
     fd0:	d8 f7       	brcc	.-10     	; 0xfc8 <strnlen+0x2>
     fd2:	80 95       	com	r24
     fd4:	90 95       	com	r25
     fd6:	8e 0f       	add	r24, r30
     fd8:	9f 1f       	adc	r25, r31
     fda:	08 95       	ret

00000fdc <fputc>:
     fdc:	0f 93       	push	r16
     fde:	1f 93       	push	r17
     fe0:	cf 93       	push	r28
     fe2:	df 93       	push	r29
     fe4:	fb 01       	movw	r30, r22
     fe6:	23 81       	ldd	r18, Z+3	; 0x03
     fe8:	21 fd       	sbrc	r18, 1
     fea:	03 c0       	rjmp	.+6      	; 0xff2 <fputc+0x16>
     fec:	8f ef       	ldi	r24, 0xFF	; 255
     fee:	9f ef       	ldi	r25, 0xFF	; 255
     ff0:	2c c0       	rjmp	.+88     	; 0x104a <fputc+0x6e>
     ff2:	22 ff       	sbrs	r18, 2
     ff4:	16 c0       	rjmp	.+44     	; 0x1022 <fputc+0x46>
     ff6:	46 81       	ldd	r20, Z+6	; 0x06
     ff8:	57 81       	ldd	r21, Z+7	; 0x07
     ffa:	24 81       	ldd	r18, Z+4	; 0x04
     ffc:	35 81       	ldd	r19, Z+5	; 0x05
     ffe:	42 17       	cp	r20, r18
    1000:	53 07       	cpc	r21, r19
    1002:	44 f4       	brge	.+16     	; 0x1014 <fputc+0x38>
    1004:	a0 81       	ld	r26, Z
    1006:	b1 81       	ldd	r27, Z+1	; 0x01
    1008:	9d 01       	movw	r18, r26
    100a:	2f 5f       	subi	r18, 0xFF	; 255
    100c:	3f 4f       	sbci	r19, 0xFF	; 255
    100e:	31 83       	std	Z+1, r19	; 0x01
    1010:	20 83       	st	Z, r18
    1012:	8c 93       	st	X, r24
    1014:	26 81       	ldd	r18, Z+6	; 0x06
    1016:	37 81       	ldd	r19, Z+7	; 0x07
    1018:	2f 5f       	subi	r18, 0xFF	; 255
    101a:	3f 4f       	sbci	r19, 0xFF	; 255
    101c:	37 83       	std	Z+7, r19	; 0x07
    101e:	26 83       	std	Z+6, r18	; 0x06
    1020:	14 c0       	rjmp	.+40     	; 0x104a <fputc+0x6e>
    1022:	8b 01       	movw	r16, r22
    1024:	ec 01       	movw	r28, r24
    1026:	fb 01       	movw	r30, r22
    1028:	00 84       	ldd	r0, Z+8	; 0x08
    102a:	f1 85       	ldd	r31, Z+9	; 0x09
    102c:	e0 2d       	mov	r30, r0
    102e:	09 95       	icall
    1030:	89 2b       	or	r24, r25
    1032:	e1 f6       	brne	.-72     	; 0xfec <fputc+0x10>
    1034:	d8 01       	movw	r26, r16
    1036:	16 96       	adiw	r26, 0x06	; 6
    1038:	8d 91       	ld	r24, X+
    103a:	9c 91       	ld	r25, X
    103c:	17 97       	sbiw	r26, 0x07	; 7
    103e:	01 96       	adiw	r24, 0x01	; 1
    1040:	17 96       	adiw	r26, 0x07	; 7
    1042:	9c 93       	st	X, r25
    1044:	8e 93       	st	-X, r24
    1046:	16 97       	sbiw	r26, 0x06	; 6
    1048:	ce 01       	movw	r24, r28
    104a:	df 91       	pop	r29
    104c:	cf 91       	pop	r28
    104e:	1f 91       	pop	r17
    1050:	0f 91       	pop	r16
    1052:	08 95       	ret

00001054 <__ultoa_invert>:
    1054:	fa 01       	movw	r30, r20
    1056:	aa 27       	eor	r26, r26
    1058:	28 30       	cpi	r18, 0x08	; 8
    105a:	51 f1       	breq	.+84     	; 0x10b0 <__ultoa_invert+0x5c>
    105c:	20 31       	cpi	r18, 0x10	; 16
    105e:	81 f1       	breq	.+96     	; 0x10c0 <__ultoa_invert+0x6c>
    1060:	e8 94       	clt
    1062:	6f 93       	push	r22
    1064:	6e 7f       	andi	r22, 0xFE	; 254
    1066:	6e 5f       	subi	r22, 0xFE	; 254
    1068:	7f 4f       	sbci	r23, 0xFF	; 255
    106a:	8f 4f       	sbci	r24, 0xFF	; 255
    106c:	9f 4f       	sbci	r25, 0xFF	; 255
    106e:	af 4f       	sbci	r26, 0xFF	; 255
    1070:	b1 e0       	ldi	r27, 0x01	; 1
    1072:	3e d0       	rcall	.+124    	; 0x10f0 <__ultoa_invert+0x9c>
    1074:	b4 e0       	ldi	r27, 0x04	; 4
    1076:	3c d0       	rcall	.+120    	; 0x10f0 <__ultoa_invert+0x9c>
    1078:	67 0f       	add	r22, r23
    107a:	78 1f       	adc	r23, r24
    107c:	89 1f       	adc	r24, r25
    107e:	9a 1f       	adc	r25, r26
    1080:	a1 1d       	adc	r26, r1
    1082:	68 0f       	add	r22, r24
    1084:	79 1f       	adc	r23, r25
    1086:	8a 1f       	adc	r24, r26
    1088:	91 1d       	adc	r25, r1
    108a:	a1 1d       	adc	r26, r1
    108c:	6a 0f       	add	r22, r26
    108e:	71 1d       	adc	r23, r1
    1090:	81 1d       	adc	r24, r1
    1092:	91 1d       	adc	r25, r1
    1094:	a1 1d       	adc	r26, r1
    1096:	20 d0       	rcall	.+64     	; 0x10d8 <__ultoa_invert+0x84>
    1098:	09 f4       	brne	.+2      	; 0x109c <__ultoa_invert+0x48>
    109a:	68 94       	set
    109c:	3f 91       	pop	r19
    109e:	2a e0       	ldi	r18, 0x0A	; 10
    10a0:	26 9f       	mul	r18, r22
    10a2:	11 24       	eor	r1, r1
    10a4:	30 19       	sub	r19, r0
    10a6:	30 5d       	subi	r19, 0xD0	; 208
    10a8:	31 93       	st	Z+, r19
    10aa:	de f6       	brtc	.-74     	; 0x1062 <__ultoa_invert+0xe>
    10ac:	cf 01       	movw	r24, r30
    10ae:	08 95       	ret
    10b0:	46 2f       	mov	r20, r22
    10b2:	47 70       	andi	r20, 0x07	; 7
    10b4:	40 5d       	subi	r20, 0xD0	; 208
    10b6:	41 93       	st	Z+, r20
    10b8:	b3 e0       	ldi	r27, 0x03	; 3
    10ba:	0f d0       	rcall	.+30     	; 0x10da <__ultoa_invert+0x86>
    10bc:	c9 f7       	brne	.-14     	; 0x10b0 <__ultoa_invert+0x5c>
    10be:	f6 cf       	rjmp	.-20     	; 0x10ac <__ultoa_invert+0x58>
    10c0:	46 2f       	mov	r20, r22
    10c2:	4f 70       	andi	r20, 0x0F	; 15
    10c4:	40 5d       	subi	r20, 0xD0	; 208
    10c6:	4a 33       	cpi	r20, 0x3A	; 58
    10c8:	18 f0       	brcs	.+6      	; 0x10d0 <__ultoa_invert+0x7c>
    10ca:	49 5d       	subi	r20, 0xD9	; 217
    10cc:	31 fd       	sbrc	r19, 1
    10ce:	40 52       	subi	r20, 0x20	; 32
    10d0:	41 93       	st	Z+, r20
    10d2:	02 d0       	rcall	.+4      	; 0x10d8 <__ultoa_invert+0x84>
    10d4:	a9 f7       	brne	.-22     	; 0x10c0 <__ultoa_invert+0x6c>
    10d6:	ea cf       	rjmp	.-44     	; 0x10ac <__ultoa_invert+0x58>
    10d8:	b4 e0       	ldi	r27, 0x04	; 4
    10da:	a6 95       	lsr	r26
    10dc:	97 95       	ror	r25
    10de:	87 95       	ror	r24
    10e0:	77 95       	ror	r23
    10e2:	67 95       	ror	r22
    10e4:	ba 95       	dec	r27
    10e6:	c9 f7       	brne	.-14     	; 0x10da <__ultoa_invert+0x86>
    10e8:	00 97       	sbiw	r24, 0x00	; 0
    10ea:	61 05       	cpc	r22, r1
    10ec:	71 05       	cpc	r23, r1
    10ee:	08 95       	ret
    10f0:	9b 01       	movw	r18, r22
    10f2:	ac 01       	movw	r20, r24
    10f4:	0a 2e       	mov	r0, r26
    10f6:	06 94       	lsr	r0
    10f8:	57 95       	ror	r21
    10fa:	47 95       	ror	r20
    10fc:	37 95       	ror	r19
    10fe:	27 95       	ror	r18
    1100:	ba 95       	dec	r27
    1102:	c9 f7       	brne	.-14     	; 0x10f6 <__ultoa_invert+0xa2>
    1104:	62 0f       	add	r22, r18
    1106:	73 1f       	adc	r23, r19
    1108:	84 1f       	adc	r24, r20
    110a:	95 1f       	adc	r25, r21
    110c:	a0 1d       	adc	r26, r0
    110e:	08 95       	ret

00001110 <__prologue_saves__>:
    1110:	2f 92       	push	r2
    1112:	3f 92       	push	r3
    1114:	4f 92       	push	r4
    1116:	5f 92       	push	r5
    1118:	6f 92       	push	r6
    111a:	7f 92       	push	r7
    111c:	8f 92       	push	r8
    111e:	9f 92       	push	r9
    1120:	af 92       	push	r10
    1122:	bf 92       	push	r11
    1124:	cf 92       	push	r12
    1126:	df 92       	push	r13
    1128:	ef 92       	push	r14
    112a:	ff 92       	push	r15
    112c:	0f 93       	push	r16
    112e:	1f 93       	push	r17
    1130:	cf 93       	push	r28
    1132:	df 93       	push	r29
    1134:	cd b7       	in	r28, 0x3d	; 61
    1136:	de b7       	in	r29, 0x3e	; 62
    1138:	ca 1b       	sub	r28, r26
    113a:	db 0b       	sbc	r29, r27
    113c:	0f b6       	in	r0, 0x3f	; 63
    113e:	f8 94       	cli
    1140:	de bf       	out	0x3e, r29	; 62
    1142:	0f be       	out	0x3f, r0	; 63
    1144:	cd bf       	out	0x3d, r28	; 61
    1146:	09 94       	ijmp

00001148 <__epilogue_restores__>:
    1148:	2a 88       	ldd	r2, Y+18	; 0x12
    114a:	39 88       	ldd	r3, Y+17	; 0x11
    114c:	48 88       	ldd	r4, Y+16	; 0x10
    114e:	5f 84       	ldd	r5, Y+15	; 0x0f
    1150:	6e 84       	ldd	r6, Y+14	; 0x0e
    1152:	7d 84       	ldd	r7, Y+13	; 0x0d
    1154:	8c 84       	ldd	r8, Y+12	; 0x0c
    1156:	9b 84       	ldd	r9, Y+11	; 0x0b
    1158:	aa 84       	ldd	r10, Y+10	; 0x0a
    115a:	b9 84       	ldd	r11, Y+9	; 0x09
    115c:	c8 84       	ldd	r12, Y+8	; 0x08
    115e:	df 80       	ldd	r13, Y+7	; 0x07
    1160:	ee 80       	ldd	r14, Y+6	; 0x06
    1162:	fd 80       	ldd	r15, Y+5	; 0x05
    1164:	0c 81       	ldd	r16, Y+4	; 0x04
    1166:	1b 81       	ldd	r17, Y+3	; 0x03
    1168:	aa 81       	ldd	r26, Y+2	; 0x02
    116a:	b9 81       	ldd	r27, Y+1	; 0x01
    116c:	ce 0f       	add	r28, r30
    116e:	d1 1d       	adc	r29, r1
    1170:	0f b6       	in	r0, 0x3f	; 63
    1172:	f8 94       	cli
    1174:	de bf       	out	0x3e, r29	; 62
    1176:	0f be       	out	0x3f, r0	; 63
    1178:	cd bf       	out	0x3d, r28	; 61
    117a:	ed 01       	movw	r28, r26
    117c:	08 95       	ret

0000117e <_exit>:
    117e:	f8 94       	cli

00001180 <__stop_program>:
    1180:	ff cf       	rjmp	.-2      	; 0x1180 <__stop_program>
